ARM GAS  C:\Users\lockj\AppData\Local\Temp\ccKAbpVe.s 			page 1


   1              		.cpu cortex-m7
   2              		.eabi_attribute 28, 1
   3              		.eabi_attribute 20, 1
   4              		.eabi_attribute 21, 1
   5              		.eabi_attribute 23, 3
   6              		.eabi_attribute 24, 1
   7              		.eabi_attribute 25, 1
   8              		.eabi_attribute 26, 1
   9              		.eabi_attribute 30, 2
  10              		.eabi_attribute 34, 1
  11              		.eabi_attribute 18, 4
  12              		.file	"Controls.cpp"
  13              		.text
  14              	.Ltext0:
  15              		.cfi_sections	.debug_frame
  16              		.section	.text._ZN8Controls4InitEPN5daisy8DaisyPodEff,"ax",%progbits
  17              		.align	1
  18              		.p2align 2,,3
  19              		.global	_ZN8Controls4InitEPN5daisy8DaisyPodEff
  20              		.arch armv7e-m
  21              		.syntax unified
  22              		.thumb
  23              		.thumb_func
  24              		.fpu fpv5-d16
  26              	_ZN8Controls4InitEPN5daisy8DaisyPodEff:
  27              	.LVL0:
  28              	.LFB4693:
  29              		.file 1 "Controls.cpp"
   1:Controls.cpp  **** #include "Controls.h"
   2:Controls.cpp  **** #include "daisysp.h"
   3:Controls.cpp  **** 
   4:Controls.cpp  **** using namespace daisy;
   5:Controls.cpp  **** using namespace daisysp;
   6:Controls.cpp  **** 
   7:Controls.cpp  **** void Controls::Init(DaisyPod *pod, float sample_rate, float maxDelaySamples)
   8:Controls.cpp  **** {
  30              		.loc 1 8 1 view -0
  31              		.cfi_startproc
  32              		@ args = 0, pretend = 0, frame = 32
  33              		@ frame_needed = 0, uses_anonymous_args = 0
   9:Controls.cpp  ****     pod_ = pod;
  34              		.loc 1 9 5 view .LVU1
  10:Controls.cpp  ****     maxDelaySamples_ = maxDelaySamples;
  11:Controls.cpp  ****     minDelaySamples_ = sample_rate * 0.02f;
  35              		.loc 1 11 36 is_stmt 0 view .LVU2
  36 0000 DFED3E7A 		vldr.32	s15, .L5
   8:Controls.cpp  ****     pod_ = pod;
  37              		.loc 1 8 1 view .LVU3
  38 0004 B0EE607A 		vmov.f32	s14, s1
  12:Controls.cpp  **** 
  13:Controls.cpp  ****     feedbackParam_.Init(pod_->knob1, 0.0f, 0.9f, Parameter::CUBE);   // PAGE1 knob1
  39              		.loc 1 13 31 view .LVU4
  40 0008 01F1680C 		add	ip, r1, #104
  41              		.loc 1 13 24 view .LVU5
  42 000c DFED3C0A 		vldr.32	s1, .L5+4
  43              	.LVL1:
  11:Controls.cpp  **** 
ARM GAS  C:\Users\lockj\AppData\Local\Temp\ccKAbpVe.s 			page 2


  44              		.loc 1 11 36 view .LVU6
  45 0010 60EE277A 		vmul.f32	s15, s0, s15
   8:Controls.cpp  ****     pod_ = pod;
  46              		.loc 1 8 1 view .LVU7
  47 0014 70B5     		push	{r4, r5, r6, lr}
  48              		.cfi_def_cfa_offset 16
  49              		.cfi_offset 4, -16
  50              		.cfi_offset 5, -12
  51              		.cfi_offset 6, -8
  52              		.cfi_offset 14, -4
  53 0016 2DED028B 		vpush.64	{d8}
  54              		.cfi_def_cfa_offset 24
  55              		.cfi_offset 80, -24
  56              		.cfi_offset 81, -20
  57 001a 88B0     		sub	sp, sp, #32
  58              		.cfi_def_cfa_offset 56
   8:Controls.cpp  ****     pod_ = pod;
  59              		.loc 1 8 1 view .LVU8
  60 001c 0546     		mov	r5, r0
  10:Controls.cpp  ****     minDelaySamples_ = sample_rate * 0.02f;
  61              		.loc 1 10 22 view .LVU9
  62 001e 80ED427A 		vstr.32	s14, [r0, #264]
   8:Controls.cpp  ****     pod_ = pod;
  63              		.loc 1 8 1 view .LVU10
  64 0022 B0EE408A 		vmov.f32	s16, s0
  11:Controls.cpp  **** 
  65              		.loc 1 11 22 view .LVU11
  66 0026 C0ED417A 		vstr.32	s15, [r0, #260]
  67              		.loc 1 13 31 view .LVU12
  68 002a 6C46     		mov	r4, sp
   9:Controls.cpp  ****     maxDelaySamples_ = maxDelaySamples;
  69              		.loc 1 9 10 view .LVU13
  70 002c 0160     		str	r1, [r0]
  10:Controls.cpp  ****     minDelaySamples_ = sample_rate * 0.02f;
  71              		.loc 1 10 5 is_stmt 1 view .LVU14
  11:Controls.cpp  **** 
  72              		.loc 1 11 5 view .LVU15
  73              		.loc 1 13 5 view .LVU16
  14:Controls.cpp  ****     drywetParam_.Init(pod_->knob2, 0.0f, 1.0f, Parameter::LINEAR);   // PAGE1 knob2
  74              		.loc 1 14 29 is_stmt 0 view .LVU17
  75 002e 2E46     		mov	r6, r5
  13:Controls.cpp  ****     drywetParam_.Init(pod_->knob2, 0.0f, 1.0f, Parameter::LINEAR);   // PAGE1 knob2
  76              		.loc 1 13 24 view .LVU18
  77 0030 9FED340A 		vldr.32	s0, .L5+8
  78              	.LVL2:
  13:Controls.cpp  ****     drywetParam_.Init(pod_->knob2, 0.0f, 1.0f, Parameter::LINEAR);   // PAGE1 knob2
  79              		.loc 1 13 31 view .LVU19
  80 0034 BCE80F00 		ldmia	ip!, {r0, r1, r2, r3}
  81              	.LVL3:
  13:Controls.cpp  ****     drywetParam_.Init(pod_->knob2, 0.0f, 1.0f, Parameter::LINEAR);   // PAGE1 knob2
  82              		.loc 1 13 31 view .LVU20
  83 0038 0FC4     		stmia	r4!, {r0, r1, r2, r3}
  84 003a 9CE80F00 		ldm	ip, {r0, r1, r2, r3}
  85 003e 84E80F00 		stm	r4, {r0, r1, r2, r3}
  13:Controls.cpp  ****     drywetParam_.Init(pod_->knob2, 0.0f, 1.0f, Parameter::LINEAR);   // PAGE1 knob2
  86              		.loc 1 13 24 view .LVU21
  87 0042 6946     		mov	r1, sp
ARM GAS  C:\Users\lockj\AppData\Local\Temp\ccKAbpVe.s 			page 3


  88 0044 05F10800 		add	r0, r5, #8
  89 0048 0322     		movs	r2, #3
  90 004a FFF7FEFF 		bl	_ZN5daisy9Parameter4InitENS_13AnalogControlEffNS0_5CurveE
  91              	.LVL4:
  92              	.LBB30:
  93              	.LBI30:
  94              		.file 2 "D:/OneDrive/Frankencloud/Installable/AudioInterfaces/DaisySeed/DaisyExamples/libDaisy/src
   1:D:/OneDrive/Frankencloud/Installable/AudioInterfaces/DaisySeed/DaisyExamples/libDaisy/src/hid\ctrl.h **** #pragma once
   2:D:/OneDrive/Frankencloud/Installable/AudioInterfaces/DaisySeed/DaisyExamples/libDaisy/src/hid\ctrl.h **** #ifndef DSY_KNOB_H
   3:D:/OneDrive/Frankencloud/Installable/AudioInterfaces/DaisySeed/DaisyExamples/libDaisy/src/hid\ctrl.h **** #define DSY_KNOB_H /**< & */
   4:D:/OneDrive/Frankencloud/Installable/AudioInterfaces/DaisySeed/DaisyExamples/libDaisy/src/hid\ctrl.h **** #include <stdint.h>
   5:D:/OneDrive/Frankencloud/Installable/AudioInterfaces/DaisySeed/DaisyExamples/libDaisy/src/hid\ctrl.h **** 
   6:D:/OneDrive/Frankencloud/Installable/AudioInterfaces/DaisySeed/DaisyExamples/libDaisy/src/hid\ctrl.h **** #ifdef __cplusplus
   7:D:/OneDrive/Frankencloud/Installable/AudioInterfaces/DaisySeed/DaisyExamples/libDaisy/src/hid\ctrl.h **** namespace daisy
   8:D:/OneDrive/Frankencloud/Installable/AudioInterfaces/DaisySeed/DaisyExamples/libDaisy/src/hid\ctrl.h **** {
   9:D:/OneDrive/Frankencloud/Installable/AudioInterfaces/DaisySeed/DaisyExamples/libDaisy/src/hid\ctrl.h **** /**
  10:D:/OneDrive/Frankencloud/Installable/AudioInterfaces/DaisySeed/DaisyExamples/libDaisy/src/hid\ctrl.h ****     @brief Hardware Interface for control inputs \n 
  11:D:/OneDrive/Frankencloud/Installable/AudioInterfaces/DaisySeed/DaisyExamples/libDaisy/src/hid\ctrl.h ****     Primarily designed for ADC input controls such as \n 
  12:D:/OneDrive/Frankencloud/Installable/AudioInterfaces/DaisySeed/DaisyExamples/libDaisy/src/hid\ctrl.h ****     potentiometers, and control voltage. \n 
  13:D:/OneDrive/Frankencloud/Installable/AudioInterfaces/DaisySeed/DaisyExamples/libDaisy/src/hid\ctrl.h ****     @author Stephen Hensley
  14:D:/OneDrive/Frankencloud/Installable/AudioInterfaces/DaisySeed/DaisyExamples/libDaisy/src/hid\ctrl.h ****     @date November 2019
  15:D:/OneDrive/Frankencloud/Installable/AudioInterfaces/DaisySeed/DaisyExamples/libDaisy/src/hid\ctrl.h ****     @ingroup controls
  16:D:/OneDrive/Frankencloud/Installable/AudioInterfaces/DaisySeed/DaisyExamples/libDaisy/src/hid\ctrl.h **** */
  17:D:/OneDrive/Frankencloud/Installable/AudioInterfaces/DaisySeed/DaisyExamples/libDaisy/src/hid\ctrl.h **** class AnalogControl
  18:D:/OneDrive/Frankencloud/Installable/AudioInterfaces/DaisySeed/DaisyExamples/libDaisy/src/hid\ctrl.h **** {
  19:D:/OneDrive/Frankencloud/Installable/AudioInterfaces/DaisySeed/DaisyExamples/libDaisy/src/hid\ctrl.h ****   public:
  20:D:/OneDrive/Frankencloud/Installable/AudioInterfaces/DaisySeed/DaisyExamples/libDaisy/src/hid\ctrl.h ****     /** Constructor */
  21:D:/OneDrive/Frankencloud/Installable/AudioInterfaces/DaisySeed/DaisyExamples/libDaisy/src/hid\ctrl.h ****     AnalogControl() {}
  22:D:/OneDrive/Frankencloud/Installable/AudioInterfaces/DaisySeed/DaisyExamples/libDaisy/src/hid\ctrl.h ****     /** destructor */
  23:D:/OneDrive/Frankencloud/Installable/AudioInterfaces/DaisySeed/DaisyExamples/libDaisy/src/hid\ctrl.h ****     ~AnalogControl() {}
  95              		.loc 2 23 5 is_stmt 1 view .LVU22
  96              		.loc 2 23 5 is_stmt 0 view .LVU23
  97              	.LBE30:
  98              		.loc 1 14 5 is_stmt 1 view .LVU24
  99              		.loc 1 14 29 is_stmt 0 view .LVU25
 100 004e 56F8403B 		ldr	r3, [r6], #64
 101 0052 EE46     		mov	lr, sp
 102              		.loc 1 14 22 view .LVU26
 103 0054 F7EE000A 		vmov.f32	s1, #1.0e+0
 104              		.loc 1 14 29 view .LVU27
 105 0058 03F1880C 		add	ip, r3, #136
 106              		.loc 1 14 22 view .LVU28
 107 005c 9FED290A 		vldr.32	s0, .L5+8
 108              		.loc 1 14 29 view .LVU29
 109 0060 BCE80F00 		ldmia	ip!, {r0, r1, r2, r3}
 110 0064 AEE80F00 		stmia	lr!, {r0, r1, r2, r3}
 111 0068 9CE80F00 		ldm	ip, {r0, r1, r2, r3}
 112 006c 84E80F00 		stm	r4, {r0, r1, r2, r3}
 113              		.loc 1 14 22 view .LVU30
 114 0070 3046     		mov	r0, r6
  15:Controls.cpp  ****     bassParam_.Init(pod_->knob1, 0.0f, 2.0f, Parameter::LINEAR);     // PAGE2 knob1
 115              		.loc 1 15 27 view .LVU31
 116 0072 2E46     		mov	r6, r5
  14:Controls.cpp  ****     bassParam_.Init(pod_->knob1, 0.0f, 2.0f, Parameter::LINEAR);     // PAGE2 knob1
 117              		.loc 1 14 22 view .LVU32
 118 0074 6946     		mov	r1, sp
 119 0076 0022     		movs	r2, #0
ARM GAS  C:\Users\lockj\AppData\Local\Temp\ccKAbpVe.s 			page 4


 120 0078 FFF7FEFF 		bl	_ZN5daisy9Parameter4InitENS_13AnalogControlEffNS0_5CurveE
 121              	.LVL5:
 122              	.LBB31:
 123              	.LBI31:
 124              		.loc 2 23 5 is_stmt 1 view .LVU33
 125              		.loc 2 23 5 is_stmt 0 view .LVU34
 126              	.LBE31:
 127              		.loc 1 15 5 is_stmt 1 view .LVU35
 128              		.loc 1 15 27 is_stmt 0 view .LVU36
 129 007c 56F8783B 		ldr	r3, [r6], #120
 130 0080 EE46     		mov	lr, sp
 131              		.loc 1 15 20 view .LVU37
 132 0082 F0EE000A 		vmov.f32	s1, #2.0e+0
 133              		.loc 1 15 27 view .LVU38
 134 0086 03F1680C 		add	ip, r3, #104
 135              		.loc 1 15 20 view .LVU39
 136 008a 9FED1E0A 		vldr.32	s0, .L5+8
 137              		.loc 1 15 27 view .LVU40
 138 008e BCE80F00 		ldmia	ip!, {r0, r1, r2, r3}
 139 0092 AEE80F00 		stmia	lr!, {r0, r1, r2, r3}
 140 0096 9CE80F00 		ldm	ip, {r0, r1, r2, r3}
 141 009a 84E80F00 		stm	r4, {r0, r1, r2, r3}
 142              		.loc 1 15 20 view .LVU41
 143 009e 3046     		mov	r0, r6
  16:Controls.cpp  ****     trebleParam_.Init(pod_->knob2, 0.0f, 2.0f, Parameter::LINEAR);   // PAGE2 knob2
 144              		.loc 1 16 29 view .LVU42
 145 00a0 2E46     		mov	r6, r5
  15:Controls.cpp  ****     bassParam_.Init(pod_->knob1, 0.0f, 2.0f, Parameter::LINEAR);     // PAGE2 knob1
 146              		.loc 1 15 20 view .LVU43
 147 00a2 6946     		mov	r1, sp
 148 00a4 0022     		movs	r2, #0
 149 00a6 FFF7FEFF 		bl	_ZN5daisy9Parameter4InitENS_13AnalogControlEffNS0_5CurveE
 150              	.LVL6:
 151              	.LBB32:
 152              	.LBI32:
 153              		.loc 2 23 5 is_stmt 1 view .LVU44
 154              		.loc 2 23 5 is_stmt 0 view .LVU45
 155              	.LBE32:
 156              		.loc 1 16 5 is_stmt 1 view .LVU46
 157              		.loc 1 16 29 is_stmt 0 view .LVU47
 158 00aa 56F8B03B 		ldr	r3, [r6], #176
 159 00ae EE46     		mov	lr, sp
 160              		.loc 1 16 22 view .LVU48
 161 00b0 F0EE000A 		vmov.f32	s1, #2.0e+0
 162              		.loc 1 16 29 view .LVU49
 163 00b4 03F1880C 		add	ip, r3, #136
 164              		.loc 1 16 22 view .LVU50
 165 00b8 9FED120A 		vldr.32	s0, .L5+8
 166              		.loc 1 16 29 view .LVU51
 167 00bc BCE80F00 		ldmia	ip!, {r0, r1, r2, r3}
 168 00c0 AEE80F00 		stmia	lr!, {r0, r1, r2, r3}
 169 00c4 9CE80F00 		ldm	ip, {r0, r1, r2, r3}
 170 00c8 84E80F00 		stm	r4, {r0, r1, r2, r3}
 171              		.loc 1 16 22 view .LVU52
 172 00cc 0022     		movs	r2, #0
 173 00ce 6946     		mov	r1, sp
 174 00d0 3046     		mov	r0, r6
ARM GAS  C:\Users\lockj\AppData\Local\Temp\ccKAbpVe.s 			page 5


 175 00d2 FFF7FEFF 		bl	_ZN5daisy9Parameter4InitENS_13AnalogControlEffNS0_5CurveE
 176              	.LVL7:
 177              	.LBB33:
 178              	.LBI33:
 179              		.loc 2 23 5 is_stmt 1 view .LVU53
 180              		.loc 2 23 5 is_stmt 0 view .LVU54
 181              	.LBE33:
  17:Controls.cpp  **** 
  18:Controls.cpp  ****     delayTarget_ = (sample_rate * 0.75f < maxDelaySamples_) ? sample_rate * 0.75f : maxDelaySamples
 182              		.loc 1 18 5 is_stmt 1 view .LVU55
 183              		.loc 1 18 33 is_stmt 0 view .LVU56
 184 00d6 B6EE080A 		vmov.f32	s0, #7.5e-1
 185              		.loc 1 18 43 view .LVU57
 186 00da D5ED427A 		vldr.32	s15, [r5, #264]
 187              		.loc 1 18 33 view .LVU58
 188 00de 28EE000A 		vmul.f32	s0, s16, s0
 189              		.loc 1 18 61 view .LVU59
 190 00e2 B4EEE70A 		vcmpe.f32	s0, s15
 191 00e6 F1EE10FA 		vmrs	APSR_nzcv, FPSCR
 192 00ea 58BF     		it	pl
 193 00ec B0EE670A 		vmovpl.f32	s0, s15
 194              		.loc 1 18 18 view .LVU60
 195 00f0 85ED3E0A 		vstr.32	s0, [r5, #248]
  19:Controls.cpp  **** }
 196              		.loc 1 19 1 view .LVU61
 197 00f4 08B0     		add	sp, sp, #32
 198              		.cfi_def_cfa_offset 24
 199              		@ sp needed
 200 00f6 BDEC028B 		vldm	sp!, {d8}
 201              		.cfi_restore 80
 202              		.cfi_restore 81
 203              		.cfi_def_cfa_offset 16
 204              	.LVL8:
 205              		.loc 1 19 1 view .LVU62
 206 00fa 70BD     		pop	{r4, r5, r6, pc}
 207              	.LVL9:
 208              	.L6:
 209              		.loc 1 19 1 view .LVU63
 210              		.align	2
 211              	.L5:
 212 00fc 0AD7A33C 		.word	1017370378
 213 0100 6666663F 		.word	1063675494
 214 0104 00000000 		.word	0
 215              		.cfi_endproc
 216              	.LFE4693:
 218              		.section	.text._ZN8Controls11UpdateKnobsEv,"ax",%progbits
 219              		.align	1
 220              		.p2align 2,,3
 221              		.global	_ZN8Controls11UpdateKnobsEv
 222              		.syntax unified
 223              		.thumb
 224              		.thumb_func
 225              		.fpu fpv5-d16
 227              	_ZN8Controls11UpdateKnobsEv:
 228              	.LVL10:
 229              	.LFB4695:
  20:Controls.cpp  **** 
ARM GAS  C:\Users\lockj\AppData\Local\Temp\ccKAbpVe.s 			page 6


  21:Controls.cpp  **** void Controls::Process()
  22:Controls.cpp  **** {
  23:Controls.cpp  ****     pod_->ProcessAnalogControls();
  24:Controls.cpp  ****     pod_->ProcessDigitalControls();
  25:Controls.cpp  **** 
  26:Controls.cpp  ****     UpdateKnobs();
  27:Controls.cpp  ****     UpdateDelayRate();
  28:Controls.cpp  ****     UpdatePage();
  29:Controls.cpp  ****     UpdateLeds();
  30:Controls.cpp  **** }
  31:Controls.cpp  **** 
  32:Controls.cpp  **** void Controls::UpdateKnobs()
  33:Controls.cpp  **** {
 230              		.loc 1 33 1 is_stmt 1 view -0
 231              		.cfi_startproc
 232              		@ args = 0, pretend = 0, frame = 0
 233              		@ frame_needed = 0, uses_anonymous_args = 0
  34:Controls.cpp  ****     k1_ = pod_->knob1.Process();
 234              		.loc 1 34 5 view .LVU65
  33:Controls.cpp  ****     k1_ = pod_->knob1.Process();
 235              		.loc 1 33 1 is_stmt 0 view .LVU66
 236 0000 10B5     		push	{r4, lr}
 237              		.cfi_def_cfa_offset 8
 238              		.cfi_offset 4, -8
 239              		.cfi_offset 14, -4
  33:Controls.cpp  ****     k1_ = pod_->knob1.Process();
 240              		.loc 1 33 1 view .LVU67
 241 0002 0446     		mov	r4, r0
 242              		.loc 1 34 30 view .LVU68
 243 0004 0068     		ldr	r0, [r0]
 244              	.LVL11:
 245              		.loc 1 34 30 view .LVU69
 246 0006 6830     		adds	r0, r0, #104
 247 0008 FFF7FEFF 		bl	_ZN5daisy13AnalogControl7ProcessEv
 248              	.LVL12:
  35:Controls.cpp  ****     k2_ = pod_->knob2.Process();
 249              		.loc 1 35 30 view .LVU70
 250 000c 2068     		ldr	r0, [r4]
  34:Controls.cpp  ****     k1_ = pod_->knob1.Process();
 251              		.loc 1 34 9 view .LVU71
 252 000e 84ED480A 		vstr.32	s0, [r4, #288]
 253              		.loc 1 35 5 is_stmt 1 view .LVU72
 254              		.loc 1 35 30 is_stmt 0 view .LVU73
 255 0012 8830     		adds	r0, r0, #136
 256 0014 FFF7FEFF 		bl	_ZN5daisy13AnalogControl7ProcessEv
 257              	.LVL13:
  36:Controls.cpp  **** 
  37:Controls.cpp  ****     if(!knob1Armed_[mode_] && fabsf(k1_ - knob1LastRaw_[mode_]) < pickupThreshold_)
 258              		.loc 1 37 21 view .LVU74
 259 0018 6368     		ldr	r3, [r4, #4]
  35:Controls.cpp  ****     k2_ = pod_->knob2.Process();
 260              		.loc 1 35 9 view .LVU75
 261 001a 84ED490A 		vstr.32	s0, [r4, #292]
 262              		.loc 1 37 5 is_stmt 1 view .LVU76
 263              		.loc 1 37 26 is_stmt 0 view .LVU77
 264 001e E218     		adds	r2, r4, r3
 265              		.loc 1 37 5 view .LVU78
ARM GAS  C:\Users\lockj\AppData\Local\Temp\ccKAbpVe.s 			page 7


 266 0020 92F81C11 		ldrb	r1, [r2, #284]	@ zero_extendqisi2
 267 0024 81B9     		cbnz	r1, .L8
 268              		.loc 1 37 62 discriminator 1 view .LVU79
 269 0026 04EB8301 		add	r1, r4, r3, lsl #2
 270              		.loc 1 37 41 discriminator 1 view .LVU80
 271 002a D4ED487A 		vldr.32	s15, [r4, #288]
 272              		.loc 1 37 28 discriminator 1 view .LVU81
 273 002e 94ED3F7A 		vldr.32	s14, [r4, #252]
 274              		.loc 1 37 41 discriminator 1 view .LVU82
 275 0032 D1ED436A 		vldr.32	s13, [r1, #268]
 276 0036 77EEE67A 		vsub.f32	s15, s15, s13
 277              		.loc 1 37 36 discriminator 1 view .LVU83
 278 003a F0EEE77A 		vabs.f32	s15, s15
 279              		.loc 1 37 28 discriminator 1 view .LVU84
 280 003e F4EEC77A 		vcmpe.f32	s15, s14
 281 0042 F1EE10FA 		vmrs	APSR_nzcv, FPSCR
 282 0046 35D4     		bmi	.L31
 283              	.L8:
  38:Controls.cpp  ****         knob1Armed_[mode_] = true;
  39:Controls.cpp  ****     if(!knob2Armed_[mode_] && fabsf(k2_ - knob2LastRaw_[mode_]) < pickupThreshold_)
 284              		.loc 1 39 5 is_stmt 1 view .LVU85
 285 0048 92F81E11 		ldrb	r1, [r2, #286]	@ zero_extendqisi2
 286 004c 71B9     		cbnz	r1, .L10
 287              		.loc 1 39 62 is_stmt 0 discriminator 1 view .LVU86
 288 004e 04EB8301 		add	r1, r4, r3, lsl #2
 289              		.loc 1 39 28 discriminator 1 view .LVU87
 290 0052 D4ED3F7A 		vldr.32	s15, [r4, #252]
 291              		.loc 1 39 41 discriminator 1 view .LVU88
 292 0056 91ED457A 		vldr.32	s14, [r1, #276]
 293 005a 30EE470A 		vsub.f32	s0, s0, s14
 294              		.loc 1 39 36 discriminator 1 view .LVU89
 295 005e B0EEC00A 		vabs.f32	s0, s0
 296              		.loc 1 39 28 discriminator 1 view .LVU90
 297 0062 B4EEE70A 		vcmpe.f32	s0, s15
 298 0066 F1EE10FA 		vmrs	APSR_nzcv, FPSCR
 299 006a 09D4     		bmi	.L32
 300              	.L10:
  40:Controls.cpp  ****         knob2Armed_[mode_] = true;
  41:Controls.cpp  **** 
  42:Controls.cpp  ****     switch(mode_)
 301              		.loc 1 42 5 is_stmt 1 view .LVU91
 302 006c 6BB1     		cbz	r3, .L12
 303              	.L35:
 304 006e 012B     		cmp	r3, #1
 305 0070 05D1     		bne	.L7
  43:Controls.cpp  ****     {
  44:Controls.cpp  ****         case PAGE1:
  45:Controls.cpp  ****             if(knob1Armed_[mode_]) { feedback_ = feedbackParam_.Process(); knob1LastRaw_[mode_] = k
  46:Controls.cpp  ****             if(knob2Armed_[mode_]) { drywet_   = drywetParam_.Process();   knob2LastRaw_[mode_] = k
  47:Controls.cpp  ****             break;
  48:Controls.cpp  ****         case PAGE2:
 306              		.loc 1 48 9 view .LVU92
  49:Controls.cpp  ****             if(knob1Armed_[mode_]) { bassGain_   = bassParam_.Process();   knob1LastRaw_[mode_] = k
 307              		.loc 1 49 13 view .LVU93
 308 0072 94F81D31 		ldrb	r3, [r4, #285]	@ zero_extendqisi2
 309 0076 0BBB     		cbnz	r3, .L33
  50:Controls.cpp  ****             if(knob2Armed_[mode_]) { trebleGain_ = trebleParam_.Process(); knob2LastRaw_[mode_] = k
ARM GAS  C:\Users\lockj\AppData\Local\Temp\ccKAbpVe.s 			page 8


 310              		.loc 1 50 13 view .LVU94
 311 0078 92F81E31 		ldrb	r3, [r2, #286]	@ zero_extendqisi2
 312 007c 83BB     		cbnz	r3, .L34
 313              	.L7:
  51:Controls.cpp  ****             break;
  52:Controls.cpp  ****     }
  53:Controls.cpp  **** }
 314              		.loc 1 53 1 is_stmt 0 view .LVU95
 315 007e 10BD     		pop	{r4, pc}
 316              	.LVL14:
 317              	.L32:
  40:Controls.cpp  **** 
 318              		.loc 1 40 9 is_stmt 1 view .LVU96
  40:Controls.cpp  **** 
 319              		.loc 1 40 28 is_stmt 0 view .LVU97
 320 0080 0121     		movs	r1, #1
 321 0082 82F81E11 		strb	r1, [r2, #286]
  42:Controls.cpp  ****     {
 322              		.loc 1 42 5 is_stmt 1 view .LVU98
 323 0086 002B     		cmp	r3, #0
 324 0088 F1D1     		bne	.L35
 325              	.L12:
  44:Controls.cpp  ****             if(knob1Armed_[mode_]) { feedback_ = feedbackParam_.Process(); knob1LastRaw_[mode_] = k
 326              		.loc 1 44 9 view .LVU99
  45:Controls.cpp  ****             if(knob2Armed_[mode_]) { drywet_   = drywetParam_.Process();   knob2LastRaw_[mode_] = k
 327              		.loc 1 45 13 view .LVU100
 328 008a 94F81C31 		ldrb	r3, [r4, #284]	@ zero_extendqisi2
 329 008e ABBB     		cbnz	r3, .L36
 330              	.L15:
  46:Controls.cpp  ****             break;
 331              		.loc 1 46 13 view .LVU101
 332 0090 92F81E31 		ldrb	r3, [r2, #286]	@ zero_extendqisi2
 333 0094 002B     		cmp	r3, #0
 334 0096 F2D0     		beq	.L7
  46:Controls.cpp  ****             break;
 335              		.loc 1 46 38 discriminator 1 view .LVU102
  46:Controls.cpp  ****             break;
 336              		.loc 1 46 70 is_stmt 0 discriminator 1 view .LVU103
 337 0098 04F14000 		add	r0, r4, #64
 338 009c FFF7FEFF 		bl	_ZN5daisy9Parameter7ProcessEv
 339              	.LVL15:
  46:Controls.cpp  ****             break;
 340              		.loc 1 46 97 discriminator 1 view .LVU104
 341 00a0 6368     		ldr	r3, [r4, #4]
 342 00a2 D4F82421 		ldr	r2, [r4, #292]	@ float
 343 00a6 04EB8303 		add	r3, r4, r3, lsl #2
  46:Controls.cpp  ****             break;
 344              		.loc 1 46 48 discriminator 1 view .LVU105
 345 00aa 84ED3B0A 		vstr.32	s0, [r4, #236]
  46:Controls.cpp  ****             break;
 346              		.loc 1 46 76 is_stmt 1 discriminator 1 view .LVU106
  46:Controls.cpp  ****             break;
 347              		.loc 1 46 97 is_stmt 0 discriminator 1 view .LVU107
 348 00ae C3F81421 		str	r2, [r3, #276]	@ float
 349              		.loc 1 53 1 discriminator 1 view .LVU108
 350 00b2 10BD     		pop	{r4, pc}
 351              	.LVL16:
ARM GAS  C:\Users\lockj\AppData\Local\Temp\ccKAbpVe.s 			page 9


 352              	.L31:
  38:Controls.cpp  ****     if(!knob2Armed_[mode_] && fabsf(k2_ - knob2LastRaw_[mode_]) < pickupThreshold_)
 353              		.loc 1 38 9 is_stmt 1 view .LVU109
  38:Controls.cpp  ****     if(!knob2Armed_[mode_] && fabsf(k2_ - knob2LastRaw_[mode_]) < pickupThreshold_)
 354              		.loc 1 38 28 is_stmt 0 view .LVU110
 355 00b4 0121     		movs	r1, #1
 356 00b6 82F81C11 		strb	r1, [r2, #284]
 357 00ba C5E7     		b	.L8
 358              	.L33:
  49:Controls.cpp  ****             if(knob2Armed_[mode_]) { trebleGain_ = trebleParam_.Process(); knob2LastRaw_[mode_] = k
 359              		.loc 1 49 38 is_stmt 1 discriminator 1 view .LVU111
  49:Controls.cpp  ****             if(knob2Armed_[mode_]) { trebleGain_ = trebleParam_.Process(); knob2LastRaw_[mode_] = k
 360              		.loc 1 49 70 is_stmt 0 discriminator 1 view .LVU112
 361 00bc 04F17800 		add	r0, r4, #120
 362 00c0 FFF7FEFF 		bl	_ZN5daisy9Parameter7ProcessEv
 363              	.LVL17:
  49:Controls.cpp  ****             if(knob2Armed_[mode_]) { trebleGain_ = trebleParam_.Process(); knob2LastRaw_[mode_] = k
 364              		.loc 1 49 90 discriminator 1 view .LVU113
 365 00c4 6368     		ldr	r3, [r4, #4]
  49:Controls.cpp  ****             if(knob2Armed_[mode_]) { trebleGain_ = trebleParam_.Process(); knob2LastRaw_[mode_] = k
 366              		.loc 1 49 97 discriminator 1 view .LVU114
 367 00c6 D4F82001 		ldr	r0, [r4, #288]	@ float
 368 00ca E218     		adds	r2, r4, r3
 369 00cc 04EB8301 		add	r1, r4, r3, lsl #2
  49:Controls.cpp  ****             if(knob2Armed_[mode_]) { trebleGain_ = trebleParam_.Process(); knob2LastRaw_[mode_] = k
 370              		.loc 1 49 50 discriminator 1 view .LVU115
 371 00d0 84ED3C0A 		vstr.32	s0, [r4, #240]
  49:Controls.cpp  ****             if(knob2Armed_[mode_]) { trebleGain_ = trebleParam_.Process(); knob2LastRaw_[mode_] = k
 372              		.loc 1 49 76 is_stmt 1 discriminator 1 view .LVU116
  50:Controls.cpp  ****             break;
 373              		.loc 1 50 13 is_stmt 0 discriminator 1 view .LVU117
 374 00d4 92F81E31 		ldrb	r3, [r2, #286]	@ zero_extendqisi2
  49:Controls.cpp  ****             if(knob2Armed_[mode_]) { trebleGain_ = trebleParam_.Process(); knob2LastRaw_[mode_] = k
 375              		.loc 1 49 97 discriminator 1 view .LVU118
 376 00d8 C1F80C01 		str	r0, [r1, #268]	@ float
  50:Controls.cpp  ****             break;
 377              		.loc 1 50 13 is_stmt 1 discriminator 1 view .LVU119
 378 00dc 002B     		cmp	r3, #0
 379 00de CED0     		beq	.L7
 380              	.L34:
  50:Controls.cpp  ****             break;
 381              		.loc 1 50 38 discriminator 1 view .LVU120
  50:Controls.cpp  ****             break;
 382              		.loc 1 50 72 is_stmt 0 discriminator 1 view .LVU121
 383 00e0 04F1B000 		add	r0, r4, #176
 384 00e4 FFF7FEFF 		bl	_ZN5daisy9Parameter7ProcessEv
 385              	.LVL18:
  50:Controls.cpp  ****             break;
 386              		.loc 1 50 97 discriminator 1 view .LVU122
 387 00e8 6068     		ldr	r0, [r4, #4]
 388 00ea D4F82431 		ldr	r3, [r4, #292]	@ float
  50:Controls.cpp  ****             break;
 389              		.loc 1 50 50 discriminator 1 view .LVU123
 390 00ee 84ED3D0A 		vstr.32	s0, [r4, #244]
  50:Controls.cpp  ****             break;
 391              		.loc 1 50 76 is_stmt 1 discriminator 1 view .LVU124
  50:Controls.cpp  ****             break;
ARM GAS  C:\Users\lockj\AppData\Local\Temp\ccKAbpVe.s 			page 10


 392              		.loc 1 50 97 is_stmt 0 discriminator 1 view .LVU125
 393 00f2 04EB8004 		add	r4, r4, r0, lsl #2
 394              	.LVL19:
  50:Controls.cpp  ****             break;
 395              		.loc 1 50 97 discriminator 1 view .LVU126
 396 00f6 C4F81431 		str	r3, [r4, #276]	@ float
 397              		.loc 1 53 1 discriminator 1 view .LVU127
 398 00fa 10BD     		pop	{r4, pc}
 399              	.LVL20:
 400              	.L36:
  45:Controls.cpp  ****             if(knob2Armed_[mode_]) { drywet_   = drywetParam_.Process();   knob2LastRaw_[mode_] = k
 401              		.loc 1 45 38 is_stmt 1 discriminator 1 view .LVU128
  45:Controls.cpp  ****             if(knob2Armed_[mode_]) { drywet_   = drywetParam_.Process();   knob2LastRaw_[mode_] = k
 402              		.loc 1 45 72 is_stmt 0 discriminator 1 view .LVU129
 403 00fc 04F10800 		add	r0, r4, #8
 404 0100 FFF7FEFF 		bl	_ZN5daisy9Parameter7ProcessEv
 405              	.LVL21:
  45:Controls.cpp  ****             if(knob2Armed_[mode_]) { drywet_   = drywetParam_.Process();   knob2LastRaw_[mode_] = k
 406              		.loc 1 45 90 discriminator 1 view .LVU130
 407 0104 6368     		ldr	r3, [r4, #4]
  45:Controls.cpp  ****             if(knob2Armed_[mode_]) { drywet_   = drywetParam_.Process();   knob2LastRaw_[mode_] = k
 408              		.loc 1 45 97 discriminator 1 view .LVU131
 409 0106 D4F82001 		ldr	r0, [r4, #288]	@ float
 410 010a 04EB8301 		add	r1, r4, r3, lsl #2
  45:Controls.cpp  ****             if(knob2Armed_[mode_]) { drywet_   = drywetParam_.Process();   knob2LastRaw_[mode_] = k
 411              		.loc 1 45 48 discriminator 1 view .LVU132
 412 010e 84ED3A0A 		vstr.32	s0, [r4, #232]
  45:Controls.cpp  ****             if(knob2Armed_[mode_]) { drywet_   = drywetParam_.Process();   knob2LastRaw_[mode_] = k
 413              		.loc 1 45 76 is_stmt 1 discriminator 1 view .LVU133
 414 0112 E218     		adds	r2, r4, r3
  45:Controls.cpp  ****             if(knob2Armed_[mode_]) { drywet_   = drywetParam_.Process();   knob2LastRaw_[mode_] = k
 415              		.loc 1 45 97 is_stmt 0 discriminator 1 view .LVU134
 416 0114 C1F80C01 		str	r0, [r1, #268]	@ float
 417 0118 BAE7     		b	.L15
 418              		.cfi_endproc
 419              	.LFE4695:
 421 011a 00BF     		.section	.text._ZN8Controls10UpdatePageEv,"ax",%progbits
 422              		.align	1
 423              		.p2align 2,,3
 424              		.global	_ZN8Controls10UpdatePageEv
 425              		.syntax unified
 426              		.thumb
 427              		.thumb_func
 428              		.fpu fpv5-d16
 430              	_ZN8Controls10UpdatePageEv:
 431              	.LVL22:
 432              	.LFB4696:
  54:Controls.cpp  **** 
  55:Controls.cpp  **** void Controls::UpdatePage()
  56:Controls.cpp  **** {
 433              		.loc 1 56 1 is_stmt 1 view -0
 434              		.cfi_startproc
 435              		@ args = 0, pretend = 0, frame = 0
 436              		@ frame_needed = 0, uses_anonymous_args = 0
 437              		@ link register save eliminated.
  57:Controls.cpp  ****     if(pod_->button2.RisingEdge())
 438              		.loc 1 57 5 view .LVU136
ARM GAS  C:\Users\lockj\AppData\Local\Temp\ccKAbpVe.s 			page 11


 439              		.loc 1 57 8 is_stmt 0 view .LVU137
 440 0000 0368     		ldr	r3, [r0]
 441              	.LVL23:
 442              	.LBB42:
 443              	.LBI42:
 444              		.file 3 "D:/OneDrive/Frankencloud/Installable/AudioInterfaces/DaisySeed/DaisyExamples/libDaisy/src
   1:D:/OneDrive/Frankencloud/Installable/AudioInterfaces/DaisySeed/DaisyExamples/libDaisy/src/hid\switch.h **** #pragma once
   2:D:/OneDrive/Frankencloud/Installable/AudioInterfaces/DaisySeed/DaisyExamples/libDaisy/src/hid\switch.h **** #ifndef DSY_SWITCH_H
   3:D:/OneDrive/Frankencloud/Installable/AudioInterfaces/DaisySeed/DaisyExamples/libDaisy/src/hid\switch.h **** #define DSY_SWITCH_H
   4:D:/OneDrive/Frankencloud/Installable/AudioInterfaces/DaisySeed/DaisyExamples/libDaisy/src/hid\switch.h **** #include "daisy_core.h"
   5:D:/OneDrive/Frankencloud/Installable/AudioInterfaces/DaisySeed/DaisyExamples/libDaisy/src/hid\switch.h **** #include "per/gpio.h"
   6:D:/OneDrive/Frankencloud/Installable/AudioInterfaces/DaisySeed/DaisyExamples/libDaisy/src/hid\switch.h **** #include "sys/system.h"
   7:D:/OneDrive/Frankencloud/Installable/AudioInterfaces/DaisySeed/DaisyExamples/libDaisy/src/hid\switch.h **** 
   8:D:/OneDrive/Frankencloud/Installable/AudioInterfaces/DaisySeed/DaisyExamples/libDaisy/src/hid\switch.h **** namespace daisy
   9:D:/OneDrive/Frankencloud/Installable/AudioInterfaces/DaisySeed/DaisyExamples/libDaisy/src/hid\switch.h **** {
  10:D:/OneDrive/Frankencloud/Installable/AudioInterfaces/DaisySeed/DaisyExamples/libDaisy/src/hid\switch.h **** /** 
  11:D:/OneDrive/Frankencloud/Installable/AudioInterfaces/DaisySeed/DaisyExamples/libDaisy/src/hid\switch.h ****     Generic Class for handling momentary/latching switches \n 
  12:D:/OneDrive/Frankencloud/Installable/AudioInterfaces/DaisySeed/DaisyExamples/libDaisy/src/hid\switch.h ****     Inspired/influenced by Mutable Instruments (pichenettes) Switch classes
  13:D:/OneDrive/Frankencloud/Installable/AudioInterfaces/DaisySeed/DaisyExamples/libDaisy/src/hid\switch.h ****     @author Stephen Hensley
  14:D:/OneDrive/Frankencloud/Installable/AudioInterfaces/DaisySeed/DaisyExamples/libDaisy/src/hid\switch.h ****     @date December 2019
  15:D:/OneDrive/Frankencloud/Installable/AudioInterfaces/DaisySeed/DaisyExamples/libDaisy/src/hid\switch.h ****     @ingroup controls
  16:D:/OneDrive/Frankencloud/Installable/AudioInterfaces/DaisySeed/DaisyExamples/libDaisy/src/hid\switch.h **** */
  17:D:/OneDrive/Frankencloud/Installable/AudioInterfaces/DaisySeed/DaisyExamples/libDaisy/src/hid\switch.h **** class Switch
  18:D:/OneDrive/Frankencloud/Installable/AudioInterfaces/DaisySeed/DaisyExamples/libDaisy/src/hid\switch.h **** {
  19:D:/OneDrive/Frankencloud/Installable/AudioInterfaces/DaisySeed/DaisyExamples/libDaisy/src/hid\switch.h ****   public:
  20:D:/OneDrive/Frankencloud/Installable/AudioInterfaces/DaisySeed/DaisyExamples/libDaisy/src/hid\switch.h ****     /** Specifies the expected behavior of the switch */
  21:D:/OneDrive/Frankencloud/Installable/AudioInterfaces/DaisySeed/DaisyExamples/libDaisy/src/hid\switch.h ****     enum Type
  22:D:/OneDrive/Frankencloud/Installable/AudioInterfaces/DaisySeed/DaisyExamples/libDaisy/src/hid\switch.h ****     {
  23:D:/OneDrive/Frankencloud/Installable/AudioInterfaces/DaisySeed/DaisyExamples/libDaisy/src/hid\switch.h ****         TYPE_TOGGLE,    /**< & */
  24:D:/OneDrive/Frankencloud/Installable/AudioInterfaces/DaisySeed/DaisyExamples/libDaisy/src/hid\switch.h ****         TYPE_MOMENTARY, /**< & */
  25:D:/OneDrive/Frankencloud/Installable/AudioInterfaces/DaisySeed/DaisyExamples/libDaisy/src/hid\switch.h ****     };
  26:D:/OneDrive/Frankencloud/Installable/AudioInterfaces/DaisySeed/DaisyExamples/libDaisy/src/hid\switch.h ****     /** Specifies whether the pressed is HIGH or LOW. */
  27:D:/OneDrive/Frankencloud/Installable/AudioInterfaces/DaisySeed/DaisyExamples/libDaisy/src/hid\switch.h ****     enum Polarity
  28:D:/OneDrive/Frankencloud/Installable/AudioInterfaces/DaisySeed/DaisyExamples/libDaisy/src/hid\switch.h ****     {
  29:D:/OneDrive/Frankencloud/Installable/AudioInterfaces/DaisySeed/DaisyExamples/libDaisy/src/hid\switch.h ****         POLARITY_NORMAL,   /**< & */
  30:D:/OneDrive/Frankencloud/Installable/AudioInterfaces/DaisySeed/DaisyExamples/libDaisy/src/hid\switch.h ****         POLARITY_INVERTED, /**< & */
  31:D:/OneDrive/Frankencloud/Installable/AudioInterfaces/DaisySeed/DaisyExamples/libDaisy/src/hid\switch.h ****     };
  32:D:/OneDrive/Frankencloud/Installable/AudioInterfaces/DaisySeed/DaisyExamples/libDaisy/src/hid\switch.h **** 
  33:D:/OneDrive/Frankencloud/Installable/AudioInterfaces/DaisySeed/DaisyExamples/libDaisy/src/hid\switch.h ****     /** Specifies whether to use built-in Pull Up/Down resistors to hold button at a given state wh
  34:D:/OneDrive/Frankencloud/Installable/AudioInterfaces/DaisySeed/DaisyExamples/libDaisy/src/hid\switch.h ****     enum Pull
  35:D:/OneDrive/Frankencloud/Installable/AudioInterfaces/DaisySeed/DaisyExamples/libDaisy/src/hid\switch.h ****     {
  36:D:/OneDrive/Frankencloud/Installable/AudioInterfaces/DaisySeed/DaisyExamples/libDaisy/src/hid\switch.h ****         PULL_UP,   /**< & */
  37:D:/OneDrive/Frankencloud/Installable/AudioInterfaces/DaisySeed/DaisyExamples/libDaisy/src/hid\switch.h ****         PULL_DOWN, /**< & */
  38:D:/OneDrive/Frankencloud/Installable/AudioInterfaces/DaisySeed/DaisyExamples/libDaisy/src/hid\switch.h ****         PULL_NONE, /**< & */
  39:D:/OneDrive/Frankencloud/Installable/AudioInterfaces/DaisySeed/DaisyExamples/libDaisy/src/hid\switch.h ****     };
  40:D:/OneDrive/Frankencloud/Installable/AudioInterfaces/DaisySeed/DaisyExamples/libDaisy/src/hid\switch.h **** 
  41:D:/OneDrive/Frankencloud/Installable/AudioInterfaces/DaisySeed/DaisyExamples/libDaisy/src/hid\switch.h ****     Switch() {}
  42:D:/OneDrive/Frankencloud/Installable/AudioInterfaces/DaisySeed/DaisyExamples/libDaisy/src/hid\switch.h ****     ~Switch() {}
  43:D:/OneDrive/Frankencloud/Installable/AudioInterfaces/DaisySeed/DaisyExamples/libDaisy/src/hid\switch.h **** 
  44:D:/OneDrive/Frankencloud/Installable/AudioInterfaces/DaisySeed/DaisyExamples/libDaisy/src/hid\switch.h ****     /** 
  45:D:/OneDrive/Frankencloud/Installable/AudioInterfaces/DaisySeed/DaisyExamples/libDaisy/src/hid\switch.h ****     Initializes the switch object with a given port/pin combo.
  46:D:/OneDrive/Frankencloud/Installable/AudioInterfaces/DaisySeed/DaisyExamples/libDaisy/src/hid\switch.h ****     \param pin port/pin object to tell the switch which hardware pin to use.
  47:D:/OneDrive/Frankencloud/Installable/AudioInterfaces/DaisySeed/DaisyExamples/libDaisy/src/hid\switch.h ****     \param update_rate Does nothing. Backwards compatibility until next breaking update.
  48:D:/OneDrive/Frankencloud/Installable/AudioInterfaces/DaisySeed/DaisyExamples/libDaisy/src/hid\switch.h ****     \param t switch type -- Default: TYPE_MOMENTARY
  49:D:/OneDrive/Frankencloud/Installable/AudioInterfaces/DaisySeed/DaisyExamples/libDaisy/src/hid\switch.h ****     \param pol switch polarity -- Default: POLARITY_INVERTED
  50:D:/OneDrive/Frankencloud/Installable/AudioInterfaces/DaisySeed/DaisyExamples/libDaisy/src/hid\switch.h ****     \param pu switch pull up/down -- Default: PULL_UP
  51:D:/OneDrive/Frankencloud/Installable/AudioInterfaces/DaisySeed/DaisyExamples/libDaisy/src/hid\switch.h ****     */
ARM GAS  C:\Users\lockj\AppData\Local\Temp\ccKAbpVe.s 			page 12


  52:D:/OneDrive/Frankencloud/Installable/AudioInterfaces/DaisySeed/DaisyExamples/libDaisy/src/hid\switch.h ****     void
  53:D:/OneDrive/Frankencloud/Installable/AudioInterfaces/DaisySeed/DaisyExamples/libDaisy/src/hid\switch.h ****     Init(dsy_gpio_pin pin, float update_rate, Type t, Polarity pol, Pull pu);
  54:D:/OneDrive/Frankencloud/Installable/AudioInterfaces/DaisySeed/DaisyExamples/libDaisy/src/hid\switch.h **** 
  55:D:/OneDrive/Frankencloud/Installable/AudioInterfaces/DaisySeed/DaisyExamples/libDaisy/src/hid\switch.h ****     /**
  56:D:/OneDrive/Frankencloud/Installable/AudioInterfaces/DaisySeed/DaisyExamples/libDaisy/src/hid\switch.h ****        Simplified Init.
  57:D:/OneDrive/Frankencloud/Installable/AudioInterfaces/DaisySeed/DaisyExamples/libDaisy/src/hid\switch.h ****        \param pin port/pin object to tell the switch which hardware pin to use.
  58:D:/OneDrive/Frankencloud/Installable/AudioInterfaces/DaisySeed/DaisyExamples/libDaisy/src/hid\switch.h ****        \param update_rate Left for backwards compatibility until next breaking change.
  59:D:/OneDrive/Frankencloud/Installable/AudioInterfaces/DaisySeed/DaisyExamples/libDaisy/src/hid\switch.h ****     */
  60:D:/OneDrive/Frankencloud/Installable/AudioInterfaces/DaisySeed/DaisyExamples/libDaisy/src/hid\switch.h ****     void Init(dsy_gpio_pin pin, float update_rate = 0.f);
  61:D:/OneDrive/Frankencloud/Installable/AudioInterfaces/DaisySeed/DaisyExamples/libDaisy/src/hid\switch.h **** 
  62:D:/OneDrive/Frankencloud/Installable/AudioInterfaces/DaisySeed/DaisyExamples/libDaisy/src/hid\switch.h ****     /** 
  63:D:/OneDrive/Frankencloud/Installable/AudioInterfaces/DaisySeed/DaisyExamples/libDaisy/src/hid\switch.h ****     Called at update_rate to debounce and handle timing for the switch.
  64:D:/OneDrive/Frankencloud/Installable/AudioInterfaces/DaisySeed/DaisyExamples/libDaisy/src/hid\switch.h ****     In order for events not to be missed, its important that the Edge/Pressed checks
  65:D:/OneDrive/Frankencloud/Installable/AudioInterfaces/DaisySeed/DaisyExamples/libDaisy/src/hid\switch.h ****     be made at the same rate as the debounce function is being called.
  66:D:/OneDrive/Frankencloud/Installable/AudioInterfaces/DaisySeed/DaisyExamples/libDaisy/src/hid\switch.h ****     */
  67:D:/OneDrive/Frankencloud/Installable/AudioInterfaces/DaisySeed/DaisyExamples/libDaisy/src/hid\switch.h ****     void Debounce();
  68:D:/OneDrive/Frankencloud/Installable/AudioInterfaces/DaisySeed/DaisyExamples/libDaisy/src/hid\switch.h **** 
  69:D:/OneDrive/Frankencloud/Installable/AudioInterfaces/DaisySeed/DaisyExamples/libDaisy/src/hid\switch.h ****     /** \return true if a button was just pressed. */
  70:D:/OneDrive/Frankencloud/Installable/AudioInterfaces/DaisySeed/DaisyExamples/libDaisy/src/hid\switch.h ****     inline bool RisingEdge() const { return updated_ ? state_ == 0x7f : false; }
 445              		.loc 3 70 17 is_stmt 1 view .LVU138
 446              	.LBB43:
 447              		.loc 3 70 38 view .LVU139
 448              		.loc 3 70 54 is_stmt 0 view .LVU140
 449 0002 93F8C420 		ldrb	r2, [r3, #196]	@ zero_extendqisi2
 450 0006 72B1     		cbz	r2, .L37
 451              	.LVL24:
 452              		.loc 3 70 54 view .LVU141
 453              	.LBE43:
 454              	.LBE42:
 455              		.loc 1 57 5 view .LVU142
 456 0008 93F8CA30 		ldrb	r3, [r3, #202]	@ zero_extendqisi2
 457 000c 7F2B     		cmp	r3, #127
 458 000e 0AD1     		bne	.L37
 459              	.LVL25:
 460              	.LBB44:
 461              	.LBI44:
  55:Controls.cpp  **** {
 462              		.loc 1 55 6 is_stmt 1 view .LVU143
 463              	.LBB45:
  58:Controls.cpp  ****     {
  59:Controls.cpp  ****         knob1Armed_[mode_] = false;
 464              		.loc 1 59 9 view .LVU144
 465              		.loc 1 59 21 is_stmt 0 view .LVU145
 466 0010 4368     		ldr	r3, [r0, #4]
 467              		.loc 1 59 28 view .LVU146
 468 0012 0021     		movs	r1, #0
  60:Controls.cpp  ****         knob2Armed_[mode_] = false;
  61:Controls.cpp  ****         mode_ = (mode_ == PAGE1) ? PAGE2 : PAGE1;
 469              		.loc 1 61 34 view .LVU147
 470 0014 B3FA83F2 		clz	r2, r3
  59:Controls.cpp  ****         knob2Armed_[mode_] = false;
 471              		.loc 1 59 28 view .LVU148
 472 0018 0344     		add	r3, r3, r0
 473              		.loc 1 61 34 view .LVU149
 474 001a 5209     		lsrs	r2, r2, #5
  59:Controls.cpp  ****         knob2Armed_[mode_] = false;
 475              		.loc 1 59 28 view .LVU150
ARM GAS  C:\Users\lockj\AppData\Local\Temp\ccKAbpVe.s 			page 13


 476 001c 83F81C11 		strb	r1, [r3, #284]
  60:Controls.cpp  ****         knob2Armed_[mode_] = false;
 477              		.loc 1 60 9 is_stmt 1 view .LVU151
  60:Controls.cpp  ****         knob2Armed_[mode_] = false;
 478              		.loc 1 60 28 is_stmt 0 view .LVU152
 479 0020 83F81E11 		strb	r1, [r3, #286]
 480              		.loc 1 61 9 is_stmt 1 view .LVU153
 481              		.loc 1 61 15 is_stmt 0 view .LVU154
 482 0024 4260     		str	r2, [r0, #4]
 483              	.LVL26:
 484              	.L37:
 485              		.loc 1 61 15 view .LVU155
 486              	.LBE45:
 487              	.LBE44:
  62:Controls.cpp  ****     }
  63:Controls.cpp  **** }
 488              		.loc 1 63 1 view .LVU156
 489 0026 7047     		bx	lr
 490              		.cfi_endproc
 491              	.LFE4696:
 493              		.section	.text._ZN8Controls15UpdateDelayRateEv,"ax",%progbits
 494              		.align	1
 495              		.p2align 2,,3
 496              		.global	_ZN8Controls15UpdateDelayRateEv
 497              		.syntax unified
 498              		.thumb
 499              		.thumb_func
 500              		.fpu fpv5-d16
 502              	_ZN8Controls15UpdateDelayRateEv:
 503              	.LVL27:
 504              	.LFB4697:
  64:Controls.cpp  **** 
  65:Controls.cpp  **** void Controls::UpdateDelayRate()
  66:Controls.cpp  **** {
 505              		.loc 1 66 1 is_stmt 1 view -0
 506              		.cfi_startproc
 507              		@ args = 0, pretend = 0, frame = 0
 508              		@ frame_needed = 0, uses_anonymous_args = 0
 509              		@ link register save eliminated.
  67:Controls.cpp  ****     int inc = pod_->encoder.Increment();
 510              		.loc 1 67 5 view .LVU158
 511              		.loc 1 67 15 is_stmt 0 view .LVU159
 512 0000 0368     		ldr	r3, [r0]
 513              	.LVL28:
 514              	.LBB53:
 515              	.LBI53:
 516              		.file 4 "D:/OneDrive/Frankencloud/Installable/AudioInterfaces/DaisySeed/DaisyExamples/libDaisy/src
   1:D:/OneDrive/Frankencloud/Installable/AudioInterfaces/DaisySeed/DaisyExamples/libDaisy/src/hid\encoder.h **** #pragma once
   2:D:/OneDrive/Frankencloud/Installable/AudioInterfaces/DaisySeed/DaisyExamples/libDaisy/src/hid\encoder.h **** #ifndef DSY_ENCODER_H
   3:D:/OneDrive/Frankencloud/Installable/AudioInterfaces/DaisySeed/DaisyExamples/libDaisy/src/hid\encoder.h **** #define DSY_ENCODER_H
   4:D:/OneDrive/Frankencloud/Installable/AudioInterfaces/DaisySeed/DaisyExamples/libDaisy/src/hid\encoder.h **** #include "daisy_core.h"
   5:D:/OneDrive/Frankencloud/Installable/AudioInterfaces/DaisySeed/DaisyExamples/libDaisy/src/hid\encoder.h **** #include "per/gpio.h"
   6:D:/OneDrive/Frankencloud/Installable/AudioInterfaces/DaisySeed/DaisyExamples/libDaisy/src/hid\encoder.h **** #include "hid/switch.h"
   7:D:/OneDrive/Frankencloud/Installable/AudioInterfaces/DaisySeed/DaisyExamples/libDaisy/src/hid\encoder.h **** 
   8:D:/OneDrive/Frankencloud/Installable/AudioInterfaces/DaisySeed/DaisyExamples/libDaisy/src/hid\encoder.h **** namespace daisy
   9:D:/OneDrive/Frankencloud/Installable/AudioInterfaces/DaisySeed/DaisyExamples/libDaisy/src/hid\encoder.h **** {
  10:D:/OneDrive/Frankencloud/Installable/AudioInterfaces/DaisySeed/DaisyExamples/libDaisy/src/hid\encoder.h **** /** 
ARM GAS  C:\Users\lockj\AppData\Local\Temp\ccKAbpVe.s 			page 14


  11:D:/OneDrive/Frankencloud/Installable/AudioInterfaces/DaisySeed/DaisyExamples/libDaisy/src/hid\encoder.h ****     @brief Generic Class for handling Quadrature Encoders \n 
  12:D:/OneDrive/Frankencloud/Installable/AudioInterfaces/DaisySeed/DaisyExamples/libDaisy/src/hid\encoder.h ****     Inspired/influenced by Mutable Instruments (pichenettes) Encoder classes
  13:D:/OneDrive/Frankencloud/Installable/AudioInterfaces/DaisySeed/DaisyExamples/libDaisy/src/hid\encoder.h ****     @author Stephen Hensley
  14:D:/OneDrive/Frankencloud/Installable/AudioInterfaces/DaisySeed/DaisyExamples/libDaisy/src/hid\encoder.h ****     @date December 2019
  15:D:/OneDrive/Frankencloud/Installable/AudioInterfaces/DaisySeed/DaisyExamples/libDaisy/src/hid\encoder.h ****     @ingroup controls
  16:D:/OneDrive/Frankencloud/Installable/AudioInterfaces/DaisySeed/DaisyExamples/libDaisy/src/hid\encoder.h **** */
  17:D:/OneDrive/Frankencloud/Installable/AudioInterfaces/DaisySeed/DaisyExamples/libDaisy/src/hid\encoder.h **** class Encoder
  18:D:/OneDrive/Frankencloud/Installable/AudioInterfaces/DaisySeed/DaisyExamples/libDaisy/src/hid\encoder.h **** {
  19:D:/OneDrive/Frankencloud/Installable/AudioInterfaces/DaisySeed/DaisyExamples/libDaisy/src/hid\encoder.h ****   public:
  20:D:/OneDrive/Frankencloud/Installable/AudioInterfaces/DaisySeed/DaisyExamples/libDaisy/src/hid\encoder.h ****     Encoder() {}
  21:D:/OneDrive/Frankencloud/Installable/AudioInterfaces/DaisySeed/DaisyExamples/libDaisy/src/hid\encoder.h ****     ~Encoder() {}
  22:D:/OneDrive/Frankencloud/Installable/AudioInterfaces/DaisySeed/DaisyExamples/libDaisy/src/hid\encoder.h **** 
  23:D:/OneDrive/Frankencloud/Installable/AudioInterfaces/DaisySeed/DaisyExamples/libDaisy/src/hid\encoder.h ****     /** Initializes the encoder with the specified hardware pins.
  24:D:/OneDrive/Frankencloud/Installable/AudioInterfaces/DaisySeed/DaisyExamples/libDaisy/src/hid\encoder.h ****      * Update rate is to be deprecated in a future release
  25:D:/OneDrive/Frankencloud/Installable/AudioInterfaces/DaisySeed/DaisyExamples/libDaisy/src/hid\encoder.h ****      */
  26:D:/OneDrive/Frankencloud/Installable/AudioInterfaces/DaisySeed/DaisyExamples/libDaisy/src/hid\encoder.h ****     void Init(dsy_gpio_pin a,
  27:D:/OneDrive/Frankencloud/Installable/AudioInterfaces/DaisySeed/DaisyExamples/libDaisy/src/hid\encoder.h ****               dsy_gpio_pin b,
  28:D:/OneDrive/Frankencloud/Installable/AudioInterfaces/DaisySeed/DaisyExamples/libDaisy/src/hid\encoder.h ****               dsy_gpio_pin click,
  29:D:/OneDrive/Frankencloud/Installable/AudioInterfaces/DaisySeed/DaisyExamples/libDaisy/src/hid\encoder.h ****               float        update_rate = 0.f);
  30:D:/OneDrive/Frankencloud/Installable/AudioInterfaces/DaisySeed/DaisyExamples/libDaisy/src/hid\encoder.h ****     /** Called at update_rate to debounce and handle timing for the switch.
  31:D:/OneDrive/Frankencloud/Installable/AudioInterfaces/DaisySeed/DaisyExamples/libDaisy/src/hid\encoder.h ****      * In order for events not to be missed, its important that the Edge/Pressed checks be made at 
  32:D:/OneDrive/Frankencloud/Installable/AudioInterfaces/DaisySeed/DaisyExamples/libDaisy/src/hid\encoder.h ****      */
  33:D:/OneDrive/Frankencloud/Installable/AudioInterfaces/DaisySeed/DaisyExamples/libDaisy/src/hid\encoder.h ****     void Debounce();
  34:D:/OneDrive/Frankencloud/Installable/AudioInterfaces/DaisySeed/DaisyExamples/libDaisy/src/hid\encoder.h **** 
  35:D:/OneDrive/Frankencloud/Installable/AudioInterfaces/DaisySeed/DaisyExamples/libDaisy/src/hid\encoder.h ****     /** Returns +1 if the encoder was turned clockwise, -1 if it was turned counter-clockwise, or 0
  36:D:/OneDrive/Frankencloud/Installable/AudioInterfaces/DaisySeed/DaisyExamples/libDaisy/src/hid\encoder.h ****     inline int32_t Increment() const { return updated_ ? inc_ : 0; }
 517              		.loc 4 36 20 is_stmt 1 view .LVU160
 518              	.LBB54:
 519              		.loc 4 36 40 view .LVU161
 520              		.loc 4 36 56 is_stmt 0 view .LVU162
 521 0002 93F84420 		ldrb	r2, [r3, #68]	@ zero_extendqisi2
 522 0006 AAB1     		cbz	r2, .L42
 523 0008 5B6E     		ldr	r3, [r3, #100]
 524              	.LVL29:
 525              		.loc 4 36 56 view .LVU163
 526              	.LBE54:
 527              	.LBE53:
  68:Controls.cpp  ****     if(inc != 0)
 528              		.loc 1 68 5 is_stmt 1 view .LVU164
 529 000a 9BB1     		cbz	r3, .L42
  69:Controls.cpp  ****     {
  70:Controls.cpp  ****         delayTarget_ += inc * delayStepSamples_;
 530              		.loc 1 70 9 view .LVU165
 531              		.loc 1 70 29 is_stmt 0 view .LVU166
 532 000c 07EE903A 		vmov	s15, r3	@ int
 533              		.loc 1 70 22 view .LVU167
 534 0010 D0ED405A 		vldr.32	s11, [r0, #256]
 535              	.LBB55:
 536              	.LBB56:
 537              	.LBB57:
 538              		.file 5 "D:/OneDrive/Frankencloud/Installable/AudioInterfaces/DaisySeed/DaisyExamples/DaisySP/Sour
   1:D:/OneDrive/Frankencloud/Installable/AudioInterfaces/DaisySeed/DaisyExamples/DaisySP/Source/Utility\dsp.h **** /*
   2:D:/OneDrive/Frankencloud/Installable/AudioInterfaces/DaisySeed/DaisyExamples/DaisySP/Source/Utility\dsp.h **** Copyright (c) 2020 Electrosmith, Corp, Emilie Gillet
   3:D:/OneDrive/Frankencloud/Installable/AudioInterfaces/DaisySeed/DaisyExamples/DaisySP/Source/Utility\dsp.h **** 
   4:D:/OneDrive/Frankencloud/Installable/AudioInterfaces/DaisySeed/DaisyExamples/DaisySP/Source/Utility\dsp.h **** Use of this source code is governed by an MIT-style
   5:D:/OneDrive/Frankencloud/Installable/AudioInterfaces/DaisySeed/DaisyExamples/DaisySP/Source/Utility\dsp.h **** license that can be found in the LICENSE file or at
   6:D:/OneDrive/Frankencloud/Installable/AudioInterfaces/DaisySeed/DaisyExamples/DaisySP/Source/Utility\dsp.h **** https://opensource.org/licenses/MIT.
ARM GAS  C:\Users\lockj\AppData\Local\Temp\ccKAbpVe.s 			page 15


   7:D:/OneDrive/Frankencloud/Installable/AudioInterfaces/DaisySeed/DaisyExamples/DaisySP/Source/Utility\dsp.h **** */
   8:D:/OneDrive/Frankencloud/Installable/AudioInterfaces/DaisySeed/DaisyExamples/DaisySP/Source/Utility\dsp.h **** 
   9:D:/OneDrive/Frankencloud/Installable/AudioInterfaces/DaisySeed/DaisyExamples/DaisySP/Source/Utility\dsp.h **** /** Helpful defines, functions, and other utilities for use in/with daisysp modules.
  10:D:/OneDrive/Frankencloud/Installable/AudioInterfaces/DaisySeed/DaisyExamples/DaisySP/Source/Utility\dsp.h **** */
  11:D:/OneDrive/Frankencloud/Installable/AudioInterfaces/DaisySeed/DaisyExamples/DaisySP/Source/Utility\dsp.h **** #pragma once
  12:D:/OneDrive/Frankencloud/Installable/AudioInterfaces/DaisySeed/DaisyExamples/DaisySP/Source/Utility\dsp.h **** #ifndef DSY_CORE_DSP
  13:D:/OneDrive/Frankencloud/Installable/AudioInterfaces/DaisySeed/DaisyExamples/DaisySP/Source/Utility\dsp.h **** #define DSY_CORE_DSP
  14:D:/OneDrive/Frankencloud/Installable/AudioInterfaces/DaisySeed/DaisyExamples/DaisySP/Source/Utility\dsp.h **** #include <cassert>
  15:D:/OneDrive/Frankencloud/Installable/AudioInterfaces/DaisySeed/DaisyExamples/DaisySP/Source/Utility\dsp.h **** #include <cstdint>
  16:D:/OneDrive/Frankencloud/Installable/AudioInterfaces/DaisySeed/DaisyExamples/DaisySP/Source/Utility\dsp.h **** #include <random>
  17:D:/OneDrive/Frankencloud/Installable/AudioInterfaces/DaisySeed/DaisyExamples/DaisySP/Source/Utility\dsp.h **** #include <cmath>
  18:D:/OneDrive/Frankencloud/Installable/AudioInterfaces/DaisySeed/DaisyExamples/DaisySP/Source/Utility\dsp.h **** 
  19:D:/OneDrive/Frankencloud/Installable/AudioInterfaces/DaisySeed/DaisyExamples/DaisySP/Source/Utility\dsp.h **** /** PIs
  20:D:/OneDrive/Frankencloud/Installable/AudioInterfaces/DaisySeed/DaisyExamples/DaisySP/Source/Utility\dsp.h **** */
  21:D:/OneDrive/Frankencloud/Installable/AudioInterfaces/DaisySeed/DaisyExamples/DaisySP/Source/Utility\dsp.h **** #define PI_F 3.1415927410125732421875f
  22:D:/OneDrive/Frankencloud/Installable/AudioInterfaces/DaisySeed/DaisyExamples/DaisySP/Source/Utility\dsp.h **** #define TWOPI_F (2.0f * PI_F)
  23:D:/OneDrive/Frankencloud/Installable/AudioInterfaces/DaisySeed/DaisyExamples/DaisySP/Source/Utility\dsp.h **** #define HALFPI_F (PI_F * 0.5f)
  24:D:/OneDrive/Frankencloud/Installable/AudioInterfaces/DaisySeed/DaisyExamples/DaisySP/Source/Utility\dsp.h **** #define DSY_MIN(in, mn) (in < mn ? in : mn)
  25:D:/OneDrive/Frankencloud/Installable/AudioInterfaces/DaisySeed/DaisyExamples/DaisySP/Source/Utility\dsp.h **** #define DSY_MAX(in, mx) (in > mx ? in : mx)
  26:D:/OneDrive/Frankencloud/Installable/AudioInterfaces/DaisySeed/DaisyExamples/DaisySP/Source/Utility\dsp.h **** #define DSY_CLAMP(in, mn, mx) (DSY_MIN(DSY_MAX(in, mn), mx))
  27:D:/OneDrive/Frankencloud/Installable/AudioInterfaces/DaisySeed/DaisyExamples/DaisySP/Source/Utility\dsp.h **** #define DSY_COUNTOF(_arr) (sizeof(_arr) / sizeof(_arr[0]))
  28:D:/OneDrive/Frankencloud/Installable/AudioInterfaces/DaisySeed/DaisyExamples/DaisySP/Source/Utility\dsp.h **** 
  29:D:/OneDrive/Frankencloud/Installable/AudioInterfaces/DaisySeed/DaisyExamples/DaisySP/Source/Utility\dsp.h **** namespace daisysp
  30:D:/OneDrive/Frankencloud/Installable/AudioInterfaces/DaisySeed/DaisyExamples/DaisySP/Source/Utility\dsp.h **** {
  31:D:/OneDrive/Frankencloud/Installable/AudioInterfaces/DaisySeed/DaisyExamples/DaisySP/Source/Utility\dsp.h **** //Avoids division for random floats. e.g. rand() * kRandFrac
  32:D:/OneDrive/Frankencloud/Installable/AudioInterfaces/DaisySeed/DaisyExamples/DaisySP/Source/Utility\dsp.h **** static constexpr float kRandFrac = 1.f / (float)RAND_MAX;
  33:D:/OneDrive/Frankencloud/Installable/AudioInterfaces/DaisySeed/DaisyExamples/DaisySP/Source/Utility\dsp.h **** 
  34:D:/OneDrive/Frankencloud/Installable/AudioInterfaces/DaisySeed/DaisyExamples/DaisySP/Source/Utility\dsp.h **** //Convert from semitones to other units. e.g. 2 ^ (kOneTwelfth * x)
  35:D:/OneDrive/Frankencloud/Installable/AudioInterfaces/DaisySeed/DaisyExamples/DaisySP/Source/Utility\dsp.h **** static constexpr float kOneTwelfth = 1.f / 12.f;
  36:D:/OneDrive/Frankencloud/Installable/AudioInterfaces/DaisySeed/DaisyExamples/DaisySP/Source/Utility\dsp.h **** 
  37:D:/OneDrive/Frankencloud/Installable/AudioInterfaces/DaisySeed/DaisyExamples/DaisySP/Source/Utility\dsp.h **** /** efficient floating point min/max
  38:D:/OneDrive/Frankencloud/Installable/AudioInterfaces/DaisySeed/DaisyExamples/DaisySP/Source/Utility\dsp.h **** c/o stephen mccaul
  39:D:/OneDrive/Frankencloud/Installable/AudioInterfaces/DaisySeed/DaisyExamples/DaisySP/Source/Utility\dsp.h **** */
  40:D:/OneDrive/Frankencloud/Installable/AudioInterfaces/DaisySeed/DaisyExamples/DaisySP/Source/Utility\dsp.h **** inline float fmax(float a, float b)
  41:D:/OneDrive/Frankencloud/Installable/AudioInterfaces/DaisySeed/DaisyExamples/DaisySP/Source/Utility\dsp.h **** {
  42:D:/OneDrive/Frankencloud/Installable/AudioInterfaces/DaisySeed/DaisyExamples/DaisySP/Source/Utility\dsp.h ****     float r;
  43:D:/OneDrive/Frankencloud/Installable/AudioInterfaces/DaisySeed/DaisyExamples/DaisySP/Source/Utility\dsp.h **** #ifdef __arm__
  44:D:/OneDrive/Frankencloud/Installable/AudioInterfaces/DaisySeed/DaisyExamples/DaisySP/Source/Utility\dsp.h ****     asm("vmaxnm.f32 %[d], %[n], %[m]" : [d] "=t"(r) : [n] "t"(a), [m] "t"(b) :);
 539              		.loc 5 44 5 view .LVU168
 540 0014 90ED416A 		vldr.32	s12, [r0, #260]
 541              	.LBE57:
 542              	.LBE56:
 543              	.LBE55:
 544              		.loc 1 70 29 view .LVU169
 545 0018 B8EEE77A 		vcvt.f32.s32	s14, s15
 546              		.loc 1 70 22 view .LVU170
 547 001c D0ED3E7A 		vldr.32	s15, [r0, #248]
 548              	.LBB64:
 549              	.LBB59:
 550              	.LBB60:
  45:D:/OneDrive/Frankencloud/Installable/AudioInterfaces/DaisySeed/DaisyExamples/DaisySP/Source/Utility\dsp.h **** #else
  46:D:/OneDrive/Frankencloud/Installable/AudioInterfaces/DaisySeed/DaisyExamples/DaisySP/Source/Utility\dsp.h ****     r = (a > b) ? a : b;
  47:D:/OneDrive/Frankencloud/Installable/AudioInterfaces/DaisySeed/DaisyExamples/DaisySP/Source/Utility\dsp.h **** #endif // __arm__
  48:D:/OneDrive/Frankencloud/Installable/AudioInterfaces/DaisySeed/DaisyExamples/DaisySP/Source/Utility\dsp.h ****     return r;
  49:D:/OneDrive/Frankencloud/Installable/AudioInterfaces/DaisySeed/DaisyExamples/DaisySP/Source/Utility\dsp.h **** }
  50:D:/OneDrive/Frankencloud/Installable/AudioInterfaces/DaisySeed/DaisyExamples/DaisySP/Source/Utility\dsp.h **** 
  51:D:/OneDrive/Frankencloud/Installable/AudioInterfaces/DaisySeed/DaisyExamples/DaisySP/Source/Utility\dsp.h **** inline float fmin(float a, float b)
ARM GAS  C:\Users\lockj\AppData\Local\Temp\ccKAbpVe.s 			page 16


  52:D:/OneDrive/Frankencloud/Installable/AudioInterfaces/DaisySeed/DaisyExamples/DaisySP/Source/Utility\dsp.h **** {
  53:D:/OneDrive/Frankencloud/Installable/AudioInterfaces/DaisySeed/DaisyExamples/DaisySP/Source/Utility\dsp.h ****     float r;
  54:D:/OneDrive/Frankencloud/Installable/AudioInterfaces/DaisySeed/DaisyExamples/DaisySP/Source/Utility\dsp.h **** #ifdef __arm__
  55:D:/OneDrive/Frankencloud/Installable/AudioInterfaces/DaisySeed/DaisyExamples/DaisySP/Source/Utility\dsp.h ****     asm("vminnm.f32 %[d], %[n], %[m]" : [d] "=t"(r) : [n] "t"(a), [m] "t"(b) :);
 551              		.loc 5 55 5 view .LVU171
 552 0020 D0ED426A 		vldr.32	s13, [r0, #264]
 553              	.LBE60:
 554              	.LBE59:
 555              	.LBE64:
 556              		.loc 1 70 22 view .LVU172
 557 0024 E7EE257A 		vfma.f32	s15, s14, s11
  71:Controls.cpp  ****         delayTarget_ = fclamp(delayTarget_, minDelaySamples_, maxDelaySamples_);
 558              		.loc 1 71 9 is_stmt 1 view .LVU173
 559              	.LVL30:
 560              	.LBB65:
 561              	.LBI55:
  56:D:/OneDrive/Frankencloud/Installable/AudioInterfaces/DaisySeed/DaisyExamples/DaisySP/Source/Utility\dsp.h **** #else
  57:D:/OneDrive/Frankencloud/Installable/AudioInterfaces/DaisySeed/DaisyExamples/DaisySP/Source/Utility\dsp.h ****     r = (a < b) ? a : b;
  58:D:/OneDrive/Frankencloud/Installable/AudioInterfaces/DaisySeed/DaisyExamples/DaisySP/Source/Utility\dsp.h **** #endif // __arm__
  59:D:/OneDrive/Frankencloud/Installable/AudioInterfaces/DaisySeed/DaisyExamples/DaisySP/Source/Utility\dsp.h ****     return r;
  60:D:/OneDrive/Frankencloud/Installable/AudioInterfaces/DaisySeed/DaisyExamples/DaisySP/Source/Utility\dsp.h **** }
  61:D:/OneDrive/Frankencloud/Installable/AudioInterfaces/DaisySeed/DaisyExamples/DaisySP/Source/Utility\dsp.h **** 
  62:D:/OneDrive/Frankencloud/Installable/AudioInterfaces/DaisySeed/DaisyExamples/DaisySP/Source/Utility\dsp.h **** /** quick fp clamp
  63:D:/OneDrive/Frankencloud/Installable/AudioInterfaces/DaisySeed/DaisyExamples/DaisySP/Source/Utility\dsp.h **** */
  64:D:/OneDrive/Frankencloud/Installable/AudioInterfaces/DaisySeed/DaisyExamples/DaisySP/Source/Utility\dsp.h **** inline float fclamp(float in, float min, float max)
 562              		.loc 5 64 14 view .LVU174
 563              	.LBE65:
  65:D:/OneDrive/Frankencloud/Installable/AudioInterfaces/DaisySeed/DaisyExamples/DaisySP/Source/Utility\dsp.h **** {
  66:D:/OneDrive/Frankencloud/Installable/AudioInterfaces/DaisySeed/DaisyExamples/DaisySP/Source/Utility\dsp.h ****     return fmin(fmax(in, min), max);
 564              		.loc 5 66 5 view .LVU175
 565              	.LBB66:
 566              	.LBB62:
 567              	.LBI56:
  40:D:/OneDrive/Frankencloud/Installable/AudioInterfaces/DaisySeed/DaisyExamples/DaisySP/Source/Utility\dsp.h **** {
 568              		.loc 5 40 14 view .LVU176
 569              	.LBB58:
  42:D:/OneDrive/Frankencloud/Installable/AudioInterfaces/DaisySeed/DaisyExamples/DaisySP/Source/Utility\dsp.h **** #ifdef __arm__
 570              		.loc 5 42 5 view .LVU177
  44:D:/OneDrive/Frankencloud/Installable/AudioInterfaces/DaisySeed/DaisyExamples/DaisySP/Source/Utility\dsp.h **** #else
 571              		.loc 5 44 5 view .LVU178
 572              		.syntax unified
 573              	@ 44 "D:/OneDrive/Frankencloud/Installable/AudioInterfaces/DaisySeed/DaisyExamples/DaisySP/Source/U
 574 0028 C7FE867A 		vmaxnm.f32 s15, s15, s12
 575              	@ 0 "" 2
 576              	.LVL31:
  48:D:/OneDrive/Frankencloud/Installable/AudioInterfaces/DaisySeed/DaisyExamples/DaisySP/Source/Utility\dsp.h **** }
 577              		.loc 5 48 5 view .LVU179
  48:D:/OneDrive/Frankencloud/Installable/AudioInterfaces/DaisySeed/DaisyExamples/DaisySP/Source/Utility\dsp.h **** }
 578              		.loc 5 48 5 is_stmt 0 view .LVU180
 579              		.thumb
 580              		.syntax unified
 581              	.LBE58:
 582              	.LBE62:
 583              	.LBB63:
 584              	.LBI59:
  51:D:/OneDrive/Frankencloud/Installable/AudioInterfaces/DaisySeed/DaisyExamples/DaisySP/Source/Utility\dsp.h **** {
 585              		.loc 5 51 14 is_stmt 1 view .LVU181
ARM GAS  C:\Users\lockj\AppData\Local\Temp\ccKAbpVe.s 			page 17


 586              	.LBB61:
  53:D:/OneDrive/Frankencloud/Installable/AudioInterfaces/DaisySeed/DaisyExamples/DaisySP/Source/Utility\dsp.h **** #ifdef __arm__
 587              		.loc 5 53 5 view .LVU182
  55:D:/OneDrive/Frankencloud/Installable/AudioInterfaces/DaisySeed/DaisyExamples/DaisySP/Source/Utility\dsp.h **** #else
 588              		.loc 5 55 5 view .LVU183
 589              		.syntax unified
 590              	@ 55 "D:/OneDrive/Frankencloud/Installable/AudioInterfaces/DaisySeed/DaisyExamples/DaisySP/Source/U
 591 002c C7FEE67A 		vminnm.f32 s15, s15, s13
 592              	@ 0 "" 2
 593              	.LVL32:
  59:D:/OneDrive/Frankencloud/Installable/AudioInterfaces/DaisySeed/DaisyExamples/DaisySP/Source/Utility\dsp.h **** }
 594              		.loc 5 59 5 view .LVU184
  59:D:/OneDrive/Frankencloud/Installable/AudioInterfaces/DaisySeed/DaisyExamples/DaisySP/Source/Utility\dsp.h **** }
 595              		.loc 5 59 5 is_stmt 0 view .LVU185
 596              		.thumb
 597              		.syntax unified
 598              	.LBE61:
 599              	.LBE63:
 600              	.LBE66:
 601              		.loc 1 71 22 view .LVU186
 602 0030 C0ED3E7A 		vstr.32	s15, [r0, #248]
 603              	.LVL33:
 604              	.L42:
  72:Controls.cpp  ****     }
  73:Controls.cpp  **** }
 605              		.loc 1 73 1 view .LVU187
 606 0034 7047     		bx	lr
 607              		.cfi_endproc
 608              	.LFE4697:
 610 0036 00BF     		.section	.text._ZN8Controls10UpdateLedsEv,"ax",%progbits
 611              		.align	1
 612              		.p2align 2,,3
 613              		.global	_ZN8Controls10UpdateLedsEv
 614              		.syntax unified
 615              		.thumb
 616              		.thumb_func
 617              		.fpu fpv5-d16
 619              	_ZN8Controls10UpdateLedsEv:
 620              	.LVL34:
 621              	.LFB4698:
  74:Controls.cpp  **** 
  75:Controls.cpp  **** void Controls::UpdateLeds()
  76:Controls.cpp  **** {
 622              		.loc 1 76 1 is_stmt 1 view -0
 623              		.cfi_startproc
 624              		@ args = 0, pretend = 0, frame = 0
 625              		@ frame_needed = 0, uses_anonymous_args = 0
  77:Controls.cpp  ****     pod_->led1.Set(k1_ * (mode_ == 2), k1_ * (mode_ == 1), k1_ * (mode_ == 0 || mode_ == 2));
 626              		.loc 1 77 5 view .LVU189
  76:Controls.cpp  ****     pod_->led1.Set(k1_ * (mode_ == 2), k1_ * (mode_ == 1), k1_ * (mode_ == 0 || mode_ == 2));
 627              		.loc 1 76 1 is_stmt 0 view .LVU190
 628 0000 10B5     		push	{r4, lr}
 629              		.cfi_def_cfa_offset 8
 630              		.cfi_offset 4, -8
 631              		.cfi_offset 14, -4
  76:Controls.cpp  ****     pod_->led1.Set(k1_ * (mode_ == 2), k1_ * (mode_ == 1), k1_ * (mode_ == 0 || mode_ == 2));
 632              		.loc 1 76 1 view .LVU191
ARM GAS  C:\Users\lockj\AppData\Local\Temp\ccKAbpVe.s 			page 18


 633 0002 0446     		mov	r4, r0
 634              		.loc 1 77 19 view .LVU192
 635 0004 0068     		ldr	r0, [r0]
 636              	.LVL35:
 637              		.loc 1 77 27 view .LVU193
 638 0006 6368     		ldr	r3, [r4, #4]
 639              		.loc 1 77 19 view .LVU194
 640 0008 D830     		adds	r0, r0, #216
 641              		.loc 1 77 20 view .LVU195
 642 000a D4ED487A 		vldr.32	s15, [r4, #288]
 643              		.loc 1 77 19 view .LVU196
 644 000e 022B     		cmp	r3, #2
 645 0010 34D0     		beq	.L58
 646              		.loc 1 77 19 discriminator 4 view .LVU197
 647 0012 9FED210A 		vldr.32	s0, .L60
 648 0016 012B     		cmp	r3, #1
 649 0018 27EE800A 		vmul.f32	s0, s15, s0
 650 001c 47FE800A 		vseleq.f32	s1, s15, s0
 651              	.L52:
 652              		.loc 1 77 78 discriminator 8 view .LVU198
 653 0020 33F00203 		bics	r3, r3, #2
 654 0024 0CBF     		ite	eq
 655 0026 0123     		moveq	r3, #1
 656 0028 0023     		movne	r3, #0
 657 002a 01EE103A 		vmov	s2, r3	@ int
 658              		.loc 1 77 19 discriminator 8 view .LVU199
 659 002e B8EEC11A 		vcvt.f32.s32	s2, s2
 660 0032 21EE271A 		vmul.f32	s2, s2, s15
 661 0036 FFF7FEFF 		bl	_ZN5daisy6RgbLed3SetEfff
 662              	.LVL36:
  78:Controls.cpp  ****     pod_->led2.Set(k2_ * (mode_ == 2), k2_ * (mode_ == 1), k2_ * (mode_ == 0 || mode_ == 2));
 663              		.loc 1 78 5 is_stmt 1 discriminator 8 view .LVU200
 664              		.loc 1 78 20 is_stmt 0 discriminator 8 view .LVU201
 665 003a D4ED497A 		vldr.32	s15, [r4, #292]
 666              		.loc 1 78 27 discriminator 8 view .LVU202
 667 003e D4E90003 		ldrd	r0, r3, [r4]
 668              		.loc 1 78 19 discriminator 8 view .LVU203
 669 0042 022B     		cmp	r3, #2
 670 0044 00F59670 		add	r0, r0, #300
 671 0048 1FD0     		beq	.L59
 672              		.loc 1 78 19 discriminator 4 view .LVU204
 673 004a 9FED130A 		vldr.32	s0, .L60
 674 004e 012B     		cmp	r3, #1
 675 0050 27EE800A 		vmul.f32	s0, s15, s0
 676 0054 47FE800A 		vseleq.f32	s1, s15, s0
 677              	.L54:
 678              		.loc 1 78 78 discriminator 8 view .LVU205
 679 0058 33F00203 		bics	r3, r3, #2
 680 005c 0CBF     		ite	eq
 681 005e 0123     		moveq	r3, #1
 682 0060 0023     		movne	r3, #0
 683 0062 01EE103A 		vmov	s2, r3	@ int
 684              		.loc 1 78 19 discriminator 8 view .LVU206
 685 0066 B8EEC11A 		vcvt.f32.s32	s2, s2
 686 006a 21EE271A 		vmul.f32	s2, s2, s15
 687 006e FFF7FEFF 		bl	_ZN5daisy6RgbLed3SetEfff
 688              	.LVL37:
ARM GAS  C:\Users\lockj\AppData\Local\Temp\ccKAbpVe.s 			page 19


  79:Controls.cpp  ****     pod_->UpdateLeds();
 689              		.loc 1 79 5 is_stmt 1 discriminator 8 view .LVU207
 690              		.loc 1 79 21 is_stmt 0 discriminator 8 view .LVU208
 691 0072 2068     		ldr	r0, [r4]
  80:Controls.cpp  **** }...
 692              		.loc 1 80 1 discriminator 8 view .LVU209
 693 0074 BDE81040 		pop	{r4, lr}
 694              		.cfi_remember_state
 695              		.cfi_restore 14
 696              		.cfi_restore 4
 697              		.cfi_def_cfa_offset 0
 698              	.LVL38:
  79:Controls.cpp  ****     pod_->UpdateLeds();
 699              		.loc 1 79 21 discriminator 8 view .LVU210
 700 0078 FFF7FEBF 		b	_ZN5daisy8DaisyPod10UpdateLedsEv
 701              	.LVL39:
 702              	.L58:
 703              		.cfi_restore_state
  77:Controls.cpp  ****     pod_->led1.Set(k1_ * (mode_ == 2), k1_ * (mode_ == 1), k1_ * (mode_ == 0 || mode_ == 2));
 704              		.loc 1 77 19 view .LVU211
 705 007c DFED060A 		vldr.32	s1, .L60
 706 0080 B0EE670A 		vmov.f32	s0, s15
 707 0084 67EEA00A 		vmul.f32	s1, s15, s1
 708 0088 CAE7     		b	.L52
 709              	.L59:
  78:Controls.cpp  ****     pod_->led2.Set(k2_ * (mode_ == 2), k2_ * (mode_ == 1), k2_ * (mode_ == 0 || mode_ == 2));
 710              		.loc 1 78 19 view .LVU212
 711 008a DFED030A 		vldr.32	s1, .L60
 712 008e B0EE670A 		vmov.f32	s0, s15
 713 0092 67EEA00A 		vmul.f32	s1, s15, s1
 714 0096 DFE7     		b	.L54
 715              	.L61:
 716              		.align	2
 717              	.L60:
 718 0098 00000000 		.word	0
 719              		.cfi_endproc
 720              	.LFE4698:
 722              		.section	.text._ZN8Controls7ProcessEv,"ax",%progbits
 723              		.align	1
 724              		.p2align 2,,3
 725              		.global	_ZN8Controls7ProcessEv
 726              		.syntax unified
 727              		.thumb
 728              		.thumb_func
 729              		.fpu fpv5-d16
 731              	_ZN8Controls7ProcessEv:
 732              	.LVL40:
 733              	.LFB4694:
  22:Controls.cpp  **** {
 734              		.loc 1 22 1 is_stmt 1 view -0
 735              		.cfi_startproc
 736              		@ args = 0, pretend = 0, frame = 0
 737              		@ frame_needed = 0, uses_anonymous_args = 0
  23:Controls.cpp  ****     pod_->ProcessAnalogControls();
 738              		.loc 1 23 5 view .LVU214
  22:Controls.cpp  **** {
 739              		.loc 1 22 1 is_stmt 0 view .LVU215
ARM GAS  C:\Users\lockj\AppData\Local\Temp\ccKAbpVe.s 			page 20


 740 0000 10B5     		push	{r4, lr}
 741              		.cfi_def_cfa_offset 8
 742              		.cfi_offset 4, -8
 743              		.cfi_offset 14, -4
  22:Controls.cpp  **** {
 744              		.loc 1 22 1 view .LVU216
 745 0002 0446     		mov	r4, r0
  23:Controls.cpp  ****     pod_->ProcessAnalogControls();
 746              		.loc 1 23 32 view .LVU217
 747 0004 0068     		ldr	r0, [r0]
 748              	.LVL41:
  23:Controls.cpp  ****     pod_->ProcessAnalogControls();
 749              		.loc 1 23 32 view .LVU218
 750 0006 FFF7FEFF 		bl	_ZN5daisy8DaisyPod21ProcessAnalogControlsEv
 751              	.LVL42:
  24:Controls.cpp  ****     pod_->ProcessDigitalControls();
 752              		.loc 1 24 5 is_stmt 1 view .LVU219
  24:Controls.cpp  ****     pod_->ProcessDigitalControls();
 753              		.loc 1 24 33 is_stmt 0 view .LVU220
 754 000a 2068     		ldr	r0, [r4]
 755 000c FFF7FEFF 		bl	_ZN5daisy8DaisyPod22ProcessDigitalControlsEv
 756              	.LVL43:
  26:Controls.cpp  ****     UpdateKnobs();
 757              		.loc 1 26 5 is_stmt 1 view .LVU221
  26:Controls.cpp  ****     UpdateKnobs();
 758              		.loc 1 26 16 is_stmt 0 view .LVU222
 759 0010 2046     		mov	r0, r4
 760 0012 FFF7FEFF 		bl	_ZN8Controls11UpdateKnobsEv
 761              	.LVL44:
  27:Controls.cpp  ****     UpdateDelayRate();
 762              		.loc 1 27 5 is_stmt 1 view .LVU223
 763              	.LBB84:
 764              	.LBI84:
  65:Controls.cpp  **** void Controls::UpdateDelayRate()
 765              		.loc 1 65 6 view .LVU224
 766              	.LBB85:
  67:Controls.cpp  ****     int inc = pod_->encoder.Increment();
 767              		.loc 1 67 5 view .LVU225
  67:Controls.cpp  ****     int inc = pod_->encoder.Increment();
 768              		.loc 1 67 15 is_stmt 0 view .LVU226
 769 0016 2368     		ldr	r3, [r4]
 770              	.LVL45:
 771              	.LBB86:
 772              	.LBI86:
 773              		.loc 4 36 20 is_stmt 1 view .LVU227
 774              	.LBB87:
 775              		.loc 4 36 40 view .LVU228
 776              		.loc 4 36 56 is_stmt 0 view .LVU229
 777 0018 93F84420 		ldrb	r2, [r3, #68]	@ zero_extendqisi2
 778 001c 0AB1     		cbz	r2, .L63
 779 001e 5A6E     		ldr	r2, [r3, #100]
 780              	.LVL46:
 781              		.loc 4 36 56 view .LVU230
 782              	.LBE87:
 783              	.LBE86:
  68:Controls.cpp  ****     if(inc != 0)
 784              		.loc 1 68 5 is_stmt 1 view .LVU231
ARM GAS  C:\Users\lockj\AppData\Local\Temp\ccKAbpVe.s 			page 21


 785 0020 B2B9     		cbnz	r2, .L75
 786              	.LVL47:
 787              	.L63:
  68:Controls.cpp  ****     if(inc != 0)
 788              		.loc 1 68 5 is_stmt 0 view .LVU232
 789              	.LBE85:
 790              	.LBE84:
  28:Controls.cpp  ****     UpdatePage();
 791              		.loc 1 28 5 is_stmt 1 view .LVU233
 792              	.LBB102:
 793              	.LBI102:
  55:Controls.cpp  **** void Controls::UpdatePage()
 794              		.loc 1 55 6 view .LVU234
 795              	.LBB103:
  57:Controls.cpp  ****     if(pod_->button2.RisingEdge())
 796              		.loc 1 57 5 view .LVU235
 797              	.LBB104:
 798              	.LBI104:
 799              		.loc 3 70 17 view .LVU236
 800              	.LBB105:
 801              		.loc 3 70 38 view .LVU237
 802              		.loc 3 70 54 is_stmt 0 view .LVU238
 803 0022 93F8C420 		ldrb	r2, [r3, #196]	@ zero_extendqisi2
 804 0026 72B1     		cbz	r2, .L64
 805              	.LVL48:
 806              		.loc 3 70 54 view .LVU239
 807              	.LBE105:
 808              	.LBE104:
  57:Controls.cpp  ****     if(pod_->button2.RisingEdge())
 809              		.loc 1 57 5 view .LVU240
 810 0028 93F8CA30 		ldrb	r3, [r3, #202]	@ zero_extendqisi2
 811 002c 7F2B     		cmp	r3, #127
 812 002e 0AD1     		bne	.L64
 813              	.LVL49:
 814              	.LBB106:
 815              	.LBI106:
  55:Controls.cpp  **** void Controls::UpdatePage()
 816              		.loc 1 55 6 is_stmt 1 view .LVU241
 817              	.LBB107:
  59:Controls.cpp  ****         knob1Armed_[mode_] = false;
 818              		.loc 1 59 9 view .LVU242
  59:Controls.cpp  ****         knob1Armed_[mode_] = false;
 819              		.loc 1 59 21 is_stmt 0 view .LVU243
 820 0030 6368     		ldr	r3, [r4, #4]
  59:Controls.cpp  ****         knob1Armed_[mode_] = false;
 821              		.loc 1 59 28 view .LVU244
 822 0032 0021     		movs	r1, #0
  61:Controls.cpp  ****         mode_ = (mode_ == PAGE1) ? PAGE2 : PAGE1;
 823              		.loc 1 61 34 view .LVU245
 824 0034 B3FA83F2 		clz	r2, r3
  59:Controls.cpp  ****         knob1Armed_[mode_] = false;
 825              		.loc 1 59 28 view .LVU246
 826 0038 2344     		add	r3, r3, r4
  61:Controls.cpp  ****         mode_ = (mode_ == PAGE1) ? PAGE2 : PAGE1;
 827              		.loc 1 61 34 view .LVU247
 828 003a 5209     		lsrs	r2, r2, #5
  59:Controls.cpp  ****         knob1Armed_[mode_] = false;
ARM GAS  C:\Users\lockj\AppData\Local\Temp\ccKAbpVe.s 			page 22


 829              		.loc 1 59 28 view .LVU248
 830 003c 83F81C11 		strb	r1, [r3, #284]
  60:Controls.cpp  ****         knob2Armed_[mode_] = false;
 831              		.loc 1 60 9 is_stmt 1 view .LVU249
  60:Controls.cpp  ****         knob2Armed_[mode_] = false;
 832              		.loc 1 60 28 is_stmt 0 view .LVU250
 833 0040 83F81E11 		strb	r1, [r3, #286]
  61:Controls.cpp  ****         mode_ = (mode_ == PAGE1) ? PAGE2 : PAGE1;
 834              		.loc 1 61 9 is_stmt 1 view .LVU251
  61:Controls.cpp  ****         mode_ = (mode_ == PAGE1) ? PAGE2 : PAGE1;
 835              		.loc 1 61 15 is_stmt 0 view .LVU252
 836 0044 6260     		str	r2, [r4, #4]
 837              	.LVL50:
 838              	.L64:
  61:Controls.cpp  ****         mode_ = (mode_ == PAGE1) ? PAGE2 : PAGE1;
 839              		.loc 1 61 15 view .LVU253
 840              	.LBE107:
 841              	.LBE106:
 842              	.LBE103:
 843              	.LBE102:
  29:Controls.cpp  ****     UpdateLeds();
 844              		.loc 1 29 5 is_stmt 1 view .LVU254
  29:Controls.cpp  ****     UpdateLeds();
 845              		.loc 1 29 15 is_stmt 0 view .LVU255
 846 0046 2046     		mov	r0, r4
  30:Controls.cpp  **** }
 847              		.loc 1 30 1 view .LVU256
 848 0048 BDE81040 		pop	{r4, lr}
 849              		.cfi_remember_state
 850              		.cfi_restore 14
 851              		.cfi_restore 4
 852              		.cfi_def_cfa_offset 0
 853              	.LVL51:
  29:Controls.cpp  ****     UpdateLeds();
 854              		.loc 1 29 15 view .LVU257
 855 004c FFF7FEBF 		b	_ZN8Controls10UpdateLedsEv
 856              	.LVL52:
 857              	.L75:
 858              		.cfi_restore_state
 859              	.LBB108:
 860              	.LBB100:
  70:Controls.cpp  ****         delayTarget_ += inc * delayStepSamples_;
 861              		.loc 1 70 9 is_stmt 1 view .LVU258
  70:Controls.cpp  ****         delayTarget_ += inc * delayStepSamples_;
 862              		.loc 1 70 29 is_stmt 0 view .LVU259
 863 0050 07EE902A 		vmov	s15, r2	@ int
  70:Controls.cpp  ****         delayTarget_ += inc * delayStepSamples_;
 864              		.loc 1 70 22 view .LVU260
 865 0054 D4ED405A 		vldr.32	s11, [r4, #256]
 866              	.LBB88:
 867              	.LBB89:
 868              	.LBB90:
  44:D:/OneDrive/Frankencloud/Installable/AudioInterfaces/DaisySeed/DaisyExamples/DaisySP/Source/Utility\dsp.h **** #else
 869              		.loc 5 44 5 view .LVU261
 870 0058 94ED416A 		vldr.32	s12, [r4, #260]
 871              	.LBE90:
 872              	.LBE89:
ARM GAS  C:\Users\lockj\AppData\Local\Temp\ccKAbpVe.s 			page 23


 873              	.LBE88:
  70:Controls.cpp  ****         delayTarget_ += inc * delayStepSamples_;
 874              		.loc 1 70 29 view .LVU262
 875 005c B8EEE77A 		vcvt.f32.s32	s14, s15
  70:Controls.cpp  ****         delayTarget_ += inc * delayStepSamples_;
 876              		.loc 1 70 22 view .LVU263
 877 0060 D4ED3E7A 		vldr.32	s15, [r4, #248]
 878              	.LBB97:
 879              	.LBB92:
 880              	.LBB93:
  55:D:/OneDrive/Frankencloud/Installable/AudioInterfaces/DaisySeed/DaisyExamples/DaisySP/Source/Utility\dsp.h **** #else
 881              		.loc 5 55 5 view .LVU264
 882 0064 D4ED426A 		vldr.32	s13, [r4, #264]
 883              	.LBE93:
 884              	.LBE92:
 885              	.LBE97:
  70:Controls.cpp  ****         delayTarget_ += inc * delayStepSamples_;
 886              		.loc 1 70 22 view .LVU265
 887 0068 E7EE257A 		vfma.f32	s15, s14, s11
  71:Controls.cpp  ****         delayTarget_ = fclamp(delayTarget_, minDelaySamples_, maxDelaySamples_);
 888              		.loc 1 71 9 is_stmt 1 view .LVU266
 889              	.LVL53:
 890              	.LBB98:
 891              	.LBI88:
  64:D:/OneDrive/Frankencloud/Installable/AudioInterfaces/DaisySeed/DaisyExamples/DaisySP/Source/Utility\dsp.h **** {
 892              		.loc 5 64 14 view .LVU267
 893              	.LBE98:
 894              	.LBE100:
 895              	.LBE108:
 896              		.loc 5 66 5 view .LVU268
 897              	.LBB109:
 898              	.LBB101:
 899              	.LBB99:
 900              	.LBB95:
 901              	.LBI89:
  40:D:/OneDrive/Frankencloud/Installable/AudioInterfaces/DaisySeed/DaisyExamples/DaisySP/Source/Utility\dsp.h **** {
 902              		.loc 5 40 14 view .LVU269
 903              	.LBB91:
  42:D:/OneDrive/Frankencloud/Installable/AudioInterfaces/DaisySeed/DaisyExamples/DaisySP/Source/Utility\dsp.h **** #ifdef __arm__
 904              		.loc 5 42 5 view .LVU270
  44:D:/OneDrive/Frankencloud/Installable/AudioInterfaces/DaisySeed/DaisyExamples/DaisySP/Source/Utility\dsp.h **** #else
 905              		.loc 5 44 5 view .LVU271
 906              		.syntax unified
 907              	@ 44 "D:/OneDrive/Frankencloud/Installable/AudioInterfaces/DaisySeed/DaisyExamples/DaisySP/Source/U
 908 006c C7FE867A 		vmaxnm.f32 s15, s15, s12
 909              	@ 0 "" 2
 910              	.LVL54:
  48:D:/OneDrive/Frankencloud/Installable/AudioInterfaces/DaisySeed/DaisyExamples/DaisySP/Source/Utility\dsp.h **** }
 911              		.loc 5 48 5 view .LVU272
  48:D:/OneDrive/Frankencloud/Installable/AudioInterfaces/DaisySeed/DaisyExamples/DaisySP/Source/Utility\dsp.h **** }
 912              		.loc 5 48 5 is_stmt 0 view .LVU273
 913              		.thumb
 914              		.syntax unified
 915              	.LBE91:
 916              	.LBE95:
 917              	.LBB96:
 918              	.LBI92:
ARM GAS  C:\Users\lockj\AppData\Local\Temp\ccKAbpVe.s 			page 24


  51:D:/OneDrive/Frankencloud/Installable/AudioInterfaces/DaisySeed/DaisyExamples/DaisySP/Source/Utility\dsp.h **** {
 919              		.loc 5 51 14 is_stmt 1 view .LVU274
 920              	.LBB94:
  53:D:/OneDrive/Frankencloud/Installable/AudioInterfaces/DaisySeed/DaisyExamples/DaisySP/Source/Utility\dsp.h **** #ifdef __arm__
 921              		.loc 5 53 5 view .LVU275
  55:D:/OneDrive/Frankencloud/Installable/AudioInterfaces/DaisySeed/DaisyExamples/DaisySP/Source/Utility\dsp.h **** #else
 922              		.loc 5 55 5 view .LVU276
 923              		.syntax unified
 924              	@ 55 "D:/OneDrive/Frankencloud/Installable/AudioInterfaces/DaisySeed/DaisyExamples/DaisySP/Source/U
 925 0070 C7FEE67A 		vminnm.f32 s15, s15, s13
 926              	@ 0 "" 2
 927              	.LVL55:
  59:D:/OneDrive/Frankencloud/Installable/AudioInterfaces/DaisySeed/DaisyExamples/DaisySP/Source/Utility\dsp.h **** }
 928              		.loc 5 59 5 view .LVU277
  59:D:/OneDrive/Frankencloud/Installable/AudioInterfaces/DaisySeed/DaisyExamples/DaisySP/Source/Utility\dsp.h **** }
 929              		.loc 5 59 5 is_stmt 0 view .LVU278
 930              		.thumb
 931              		.syntax unified
 932              	.LBE94:
 933              	.LBE96:
 934              	.LBE99:
  71:Controls.cpp  ****         delayTarget_ = fclamp(delayTarget_, minDelaySamples_, maxDelaySamples_);
 935              		.loc 1 71 22 view .LVU279
 936 0074 C4ED3E7A 		vstr.32	s15, [r4, #248]
 937 0078 D3E7     		b	.L63
 938              	.LBE101:
 939              	.LBE109:
 940              		.cfi_endproc
 941              	.LFE4694:
 943 007a 00BF     		.text
 944              	.Letext0:
 945              		.file 6 "c:\\program files\\daisytoolchain\\arm-none-eabi\\include\\machine\\_default_types.h"
 946              		.file 7 "c:\\program files\\daisytoolchain\\arm-none-eabi\\include\\sys\\_stdint.h"
 947              		.file 8 "c:\\program files\\daisytoolchain\\arm-none-eabi\\include\\stdint.h"
 948              		.file 9 "c:\\program files\\daisytoolchain\\lib\\gcc\\arm-none-eabi\\10.2.1\\include\\stddef.h"
 949              		.file 10 "c:\\program files\\daisytoolchain\\arm-none-eabi\\include\\c++\\10.2.1\\cmath"
 950              		.file 11 "c:\\program files\\daisytoolchain\\arm-none-eabi\\include\\c++\\10.2.1\\bits\\std_abs.h"
 951              		.file 12 "c:\\program files\\daisytoolchain\\arm-none-eabi\\include\\c++\\10.2.1\\cstdlib"
 952              		.file 13 "c:\\program files\\daisytoolchain\\arm-none-eabi\\include\\c++\\10.2.1\\cstdint"
 953              		.file 14 "c:\\program files\\daisytoolchain\\arm-none-eabi\\include\\c++\\10.2.1\\arm-none-eabi\\t
 954              		.file 15 "c:\\program files\\daisytoolchain\\arm-none-eabi\\include\\c++\\10.2.1\\type_traits"
 955              		.file 16 "c:\\program files\\daisytoolchain\\arm-none-eabi\\include\\c++\\10.2.1\\debug\\debug.h"
 956              		.file 17 "c:\\program files\\daisytoolchain\\arm-none-eabi\\include\\c++\\10.2.1\\bits\\algorithmf
 957              		.file 18 "c:\\program files\\daisytoolchain\\arm-none-eabi\\include\\c++\\10.2.1\\bits\\stl_pair.h
 958              		.file 19 "c:\\program files\\daisytoolchain\\arm-none-eabi\\include\\c++\\10.2.1\\bits\\exception_
 959              		.file 20 "c:\\program files\\daisytoolchain\\arm-none-eabi\\include\\c++\\10.2.1\\initializer_list
 960              		.file 21 "c:\\program files\\daisytoolchain\\arm-none-eabi\\include\\c++\\10.2.1\\cstdarg"
 961              		.file 22 "c:\\program files\\daisytoolchain\\arm-none-eabi\\include\\c++\\10.2.1\\cstdio"
 962              		.file 23 "c:\\program files\\daisytoolchain\\arm-none-eabi\\include\\c++\\10.2.1\\cstring"
 963              		.file 24 "c:\\program files\\daisytoolchain\\arm-none-eabi\\include\\c++\\10.2.1\\cwchar"
 964              		.file 25 "c:\\program files\\daisytoolchain\\arm-none-eabi\\include\\c++\\10.2.1\\clocale"
 965              		.file 26 "c:\\program files\\daisytoolchain\\arm-none-eabi\\include\\c++\\10.2.1\\bits\\basic_stri
 966              		.file 27 "c:\\program files\\daisytoolchain\\arm-none-eabi\\include\\c++\\10.2.1\\bits\\stl_tempbu
 967              		.file 28 "c:\\program files\\daisytoolchain\\arm-none-eabi\\include\\c++\\10.2.1\\bits\\predefined
 968              		.file 29 "c:\\program files\\daisytoolchain\\arm-none-eabi\\include\\sys\\_types.h"
 969              		.file 30 "c:\\program files\\daisytoolchain\\arm-none-eabi\\include\\sys\\reent.h"
 970              		.file 31 "c:\\program files\\daisytoolchain\\arm-none-eabi\\include\\sys\\lock.h"
ARM GAS  C:\Users\lockj\AppData\Local\Temp\ccKAbpVe.s 			page 25


 971              		.file 32 "c:\\program files\\daisytoolchain\\arm-none-eabi\\include\\math.h"
 972              		.file 33 "c:\\program files\\daisytoolchain\\arm-none-eabi\\include\\stdlib.h"
 973              		.file 34 "c:\\program files\\daisytoolchain\\arm-none-eabi\\include\\c++\\10.2.1\\math.h"
 974              		.file 35 "c:\\program files\\daisytoolchain\\arm-none-eabi\\include\\c++\\10.2.1\\stdlib.h"
 975              		.file 36 "D:/OneDrive/Frankencloud/Installable/AudioInterfaces/DaisySeed/DaisyExamples/libDaisy/sr
 976              		.file 37 "D:/OneDrive/Frankencloud/Installable/AudioInterfaces/DaisySeed/DaisyExamples/libDaisy/sr
 977              		.file 38 "D:/OneDrive/Frankencloud/Installable/AudioInterfaces/DaisySeed/DaisyExamples/libDaisy/sr
 978              		.file 39 "D:/OneDrive/Frankencloud/Installable/AudioInterfaces/DaisySeed/DaisyExamples/libDaisy/sr
 979              		.file 40 "D:/OneDrive/Frankencloud/Installable/AudioInterfaces/DaisySeed/DaisyExamples/libDaisy/sr
 980              		.file 41 "D:/OneDrive/Frankencloud/Installable/AudioInterfaces/DaisySeed/DaisyExamples/libDaisy/sr
 981              		.file 42 "D:/OneDrive/Frankencloud/Installable/AudioInterfaces/DaisySeed/DaisyExamples/libDaisy/sr
 982              		.file 43 "D:/OneDrive/Frankencloud/Installable/AudioInterfaces/DaisySeed/DaisyExamples/libDaisy/sr
 983              		.file 44 "D:/OneDrive/Frankencloud/Installable/AudioInterfaces/DaisySeed/DaisyExamples/libDaisy/sr
 984              		.file 45 "D:/OneDrive/Frankencloud/Installable/AudioInterfaces/DaisySeed/DaisyExamples/libDaisy/sr
 985              		.file 46 "D:/OneDrive/Frankencloud/Installable/AudioInterfaces/DaisySeed/DaisyExamples/libDaisy/sr
 986              		.file 47 "D:/OneDrive/Frankencloud/Installable/AudioInterfaces/DaisySeed/DaisyExamples/libDaisy/sr
 987              		.file 48 "D:/OneDrive/Frankencloud/Installable/AudioInterfaces/DaisySeed/DaisyExamples/libDaisy/sr
 988              		.file 49 "D:/OneDrive/Frankencloud/Installable/AudioInterfaces/DaisySeed/DaisyExamples/libDaisy/sr
 989              		.file 50 "D:/OneDrive/Frankencloud/Installable/AudioInterfaces/DaisySeed/DaisyExamples/libDaisy/sr
 990              		.file 51 "D:/OneDrive/Frankencloud/Installable/AudioInterfaces/DaisySeed/DaisyExamples/libDaisy/sr
 991              		.file 52 "D:/OneDrive/Frankencloud/Installable/AudioInterfaces/DaisySeed/DaisyExamples/libDaisy/sr
 992              		.file 53 "D:/OneDrive/Frankencloud/Installable/AudioInterfaces/DaisySeed/DaisyExamples/libDaisy/sr
 993              		.file 54 "D:/OneDrive/Frankencloud/Installable/AudioInterfaces/DaisySeed/DaisyExamples/libDaisy/sr
 994              		.file 55 "D:/OneDrive/Frankencloud/Installable/AudioInterfaces/DaisySeed/DaisyExamples/libDaisy/sr
 995              		.file 56 "D:/OneDrive/Frankencloud/Installable/AudioInterfaces/DaisySeed/DaisyExamples/libDaisy/sr
 996              		.file 57 "D:/OneDrive/Frankencloud/Installable/AudioInterfaces/DaisySeed/DaisyExamples/libDaisy/sr
 997              		.file 58 "D:/OneDrive/Frankencloud/Installable/AudioInterfaces/DaisySeed/DaisyExamples/libDaisy/sr
 998              		.file 59 "D:/OneDrive/Frankencloud/Installable/AudioInterfaces/DaisySeed/DaisyExamples/libDaisy/sr
 999              		.file 60 "c:\\program files\\daisytoolchain\\lib\\gcc\\arm-none-eabi\\10.2.1\\include\\stdarg.h"
 1000              		.file 61 "c:\\program files\\daisytoolchain\\arm-none-eabi\\include\\stdio.h"
 1001              		.file 62 "c:\\program files\\daisytoolchain\\arm-none-eabi\\include\\string.h"
 1002              		.file 63 "Controls.h"
 1003              		.file 64 "D:/OneDrive/Frankencloud/Installable/AudioInterfaces/DaisySeed/DaisyExamples/DaisySP/Sou
 1004              		.file 65 "c:\\program files\\daisytoolchain\\arm-none-eabi\\include\\wchar.h"
 1005              		.file 66 "c:\\program files\\daisytoolchain\\arm-none-eabi\\include\\locale.h"
 1006              		.file 67 "<built-in>"
 1007              		.file 68 "D:/OneDrive/Frankencloud/Installable/AudioInterfaces/DaisySeed/DaisyExamples/libDaisy/sr
ARM GAS  C:\Users\lockj\AppData\Local\Temp\ccKAbpVe.s 			page 26

