ARM GAS  C:\Users\lockj\AppData\Local\Temp\cczLlGyy.s 			page 1


   1              		.cpu cortex-m7
   2              		.eabi_attribute 28, 1
   3              		.eabi_attribute 20, 1
   4              		.eabi_attribute 21, 1
   5              		.eabi_attribute 23, 3
   6              		.eabi_attribute 24, 1
   7              		.eabi_attribute 25, 1
   8              		.eabi_attribute 26, 1
   9              		.eabi_attribute 30, 2
  10              		.eabi_attribute 34, 1
  11              		.eabi_attribute 18, 4
  12              		.file	"DelayEngine.cpp"
  13              		.text
  14              	.Ltext0:
  15              		.cfi_sections	.debug_frame
  16              		.section	.text._ZN11DelayEngine4InitEf,"ax",%progbits
  17              		.align	1
  18              		.p2align 2,,3
  19              		.global	_ZN11DelayEngine4InitEf
  20              		.arch armv7e-m
  21              		.syntax unified
  22              		.thumb
  23              		.thumb_func
  24              		.fpu fpv5-d16
  26              	_ZN11DelayEngine4InitEf:
  27              	.LVL0:
  28              	.LFB3512:
  29              		.file 1 "DelayEngine.cpp"
   1:DelayEngine.cpp **** #include "DelayEngine.h"
   2:DelayEngine.cpp **** 
   3:DelayEngine.cpp **** using namespace daisysp;
   4:DelayEngine.cpp **** 
   5:DelayEngine.cpp **** void DelayEngine::Init(float sample_rate)
   6:DelayEngine.cpp **** {
  30              		.loc 1 6 1 view -0
  31              		.cfi_startproc
  32              		@ args = 0, pretend = 0, frame = 0
  33              		@ frame_needed = 0, uses_anonymous_args = 0
   7:DelayEngine.cpp ****     dell_.Init();
  34              		.loc 1 7 5 view .LVU1
  35              	.LBB31:
  36              	.LBB32:
  37              	.LBB33:
  38              	.LBB34:
  39              		.file 2 "D:/OneDrive/Frankencloud/Installable/AudioInterfaces/DaisySeed/DaisyExamples/DaisySP/Sour
   1:D:/OneDrive/Frankencloud/Installable/AudioInterfaces/DaisySeed/DaisyExamples/DaisySP/Source/Utility\delayline.h **** /*
   2:D:/OneDrive/Frankencloud/Installable/AudioInterfaces/DaisySeed/DaisyExamples/DaisySP/Source/Utility\delayline.h **** Copyright (c) 2020 Electrosmith, Corp
   3:D:/OneDrive/Frankencloud/Installable/AudioInterfaces/DaisySeed/DaisyExamples/DaisySP/Source/Utility\delayline.h **** 
   4:D:/OneDrive/Frankencloud/Installable/AudioInterfaces/DaisySeed/DaisyExamples/DaisySP/Source/Utility\delayline.h **** Use of this source code is governed by an MIT-style
   5:D:/OneDrive/Frankencloud/Installable/AudioInterfaces/DaisySeed/DaisyExamples/DaisySP/Source/Utility\delayline.h **** license that can be found in the LICENSE file or at
   6:D:/OneDrive/Frankencloud/Installable/AudioInterfaces/DaisySeed/DaisyExamples/DaisySP/Source/Utility\delayline.h **** https://opensource.org/licenses/MIT.
   7:D:/OneDrive/Frankencloud/Installable/AudioInterfaces/DaisySeed/DaisyExamples/DaisySP/Source/Utility\delayline.h **** */
   8:D:/OneDrive/Frankencloud/Installable/AudioInterfaces/DaisySeed/DaisyExamples/DaisySP/Source/Utility\delayline.h **** 
   9:D:/OneDrive/Frankencloud/Installable/AudioInterfaces/DaisySeed/DaisyExamples/DaisySP/Source/Utility\delayline.h **** #pragma once
  10:D:/OneDrive/Frankencloud/Installable/AudioInterfaces/DaisySeed/DaisyExamples/DaisySP/Source/Utility\delayline.h **** #ifndef DSY_DELAY_H
  11:D:/OneDrive/Frankencloud/Installable/AudioInterfaces/DaisySeed/DaisyExamples/DaisySP/Source/Utility\delayline.h **** #define DSY_DELAY_H
  12:D:/OneDrive/Frankencloud/Installable/AudioInterfaces/DaisySeed/DaisyExamples/DaisySP/Source/Utility\delayline.h **** #include <stdlib.h>
ARM GAS  C:\Users\lockj\AppData\Local\Temp\cczLlGyy.s 			page 2


  13:D:/OneDrive/Frankencloud/Installable/AudioInterfaces/DaisySeed/DaisyExamples/DaisySP/Source/Utility\delayline.h **** #include <stdint.h>
  14:D:/OneDrive/Frankencloud/Installable/AudioInterfaces/DaisySeed/DaisyExamples/DaisySP/Source/Utility\delayline.h **** namespace daisysp
  15:D:/OneDrive/Frankencloud/Installable/AudioInterfaces/DaisySeed/DaisyExamples/DaisySP/Source/Utility\delayline.h **** {
  16:D:/OneDrive/Frankencloud/Installable/AudioInterfaces/DaisySeed/DaisyExamples/DaisySP/Source/Utility\delayline.h **** /** Simple Delay line.
  17:D:/OneDrive/Frankencloud/Installable/AudioInterfaces/DaisySeed/DaisyExamples/DaisySP/Source/Utility\delayline.h **** November 2019
  18:D:/OneDrive/Frankencloud/Installable/AudioInterfaces/DaisySeed/DaisyExamples/DaisySP/Source/Utility\delayline.h **** 
  19:D:/OneDrive/Frankencloud/Installable/AudioInterfaces/DaisySeed/DaisyExamples/DaisySP/Source/Utility\delayline.h **** Converted to Template December 2019
  20:D:/OneDrive/Frankencloud/Installable/AudioInterfaces/DaisySeed/DaisyExamples/DaisySP/Source/Utility\delayline.h **** 
  21:D:/OneDrive/Frankencloud/Installable/AudioInterfaces/DaisySeed/DaisyExamples/DaisySP/Source/Utility\delayline.h **** declaration example: (1 second of floats)
  22:D:/OneDrive/Frankencloud/Installable/AudioInterfaces/DaisySeed/DaisyExamples/DaisySP/Source/Utility\delayline.h **** 
  23:D:/OneDrive/Frankencloud/Installable/AudioInterfaces/DaisySeed/DaisyExamples/DaisySP/Source/Utility\delayline.h **** DelayLine<float, SAMPLE_RATE> del;
  24:D:/OneDrive/Frankencloud/Installable/AudioInterfaces/DaisySeed/DaisyExamples/DaisySP/Source/Utility\delayline.h **** 
  25:D:/OneDrive/Frankencloud/Installable/AudioInterfaces/DaisySeed/DaisyExamples/DaisySP/Source/Utility\delayline.h **** By: shensley
  26:D:/OneDrive/Frankencloud/Installable/AudioInterfaces/DaisySeed/DaisyExamples/DaisySP/Source/Utility\delayline.h **** */
  27:D:/OneDrive/Frankencloud/Installable/AudioInterfaces/DaisySeed/DaisyExamples/DaisySP/Source/Utility\delayline.h **** template <typename T, size_t max_size>
  28:D:/OneDrive/Frankencloud/Installable/AudioInterfaces/DaisySeed/DaisyExamples/DaisySP/Source/Utility\delayline.h **** class DelayLine
  29:D:/OneDrive/Frankencloud/Installable/AudioInterfaces/DaisySeed/DaisyExamples/DaisySP/Source/Utility\delayline.h **** {
  30:D:/OneDrive/Frankencloud/Installable/AudioInterfaces/DaisySeed/DaisyExamples/DaisySP/Source/Utility\delayline.h ****   public:
  31:D:/OneDrive/Frankencloud/Installable/AudioInterfaces/DaisySeed/DaisyExamples/DaisySP/Source/Utility\delayline.h ****     DelayLine() {}
  32:D:/OneDrive/Frankencloud/Installable/AudioInterfaces/DaisySeed/DaisyExamples/DaisySP/Source/Utility\delayline.h ****     ~DelayLine() {}
  33:D:/OneDrive/Frankencloud/Installable/AudioInterfaces/DaisySeed/DaisyExamples/DaisySP/Source/Utility\delayline.h ****     /** initializes the delay line by clearing the values within, and setting delay to 1 sample.
  34:D:/OneDrive/Frankencloud/Installable/AudioInterfaces/DaisySeed/DaisyExamples/DaisySP/Source/Utility\delayline.h ****     */
  35:D:/OneDrive/Frankencloud/Installable/AudioInterfaces/DaisySeed/DaisyExamples/DaisySP/Source/Utility\delayline.h ****     void Init() { Reset(); }
  36:D:/OneDrive/Frankencloud/Installable/AudioInterfaces/DaisySeed/DaisyExamples/DaisySP/Source/Utility\delayline.h ****     /** clears buffer, sets write ptr to 0, and delay to 1 sample.
  37:D:/OneDrive/Frankencloud/Installable/AudioInterfaces/DaisySeed/DaisyExamples/DaisySP/Source/Utility\delayline.h ****     */
  38:D:/OneDrive/Frankencloud/Installable/AudioInterfaces/DaisySeed/DaisyExamples/DaisySP/Source/Utility\delayline.h ****     void Reset()
  39:D:/OneDrive/Frankencloud/Installable/AudioInterfaces/DaisySeed/DaisyExamples/DaisySP/Source/Utility\delayline.h ****     {
  40:D:/OneDrive/Frankencloud/Installable/AudioInterfaces/DaisySeed/DaisyExamples/DaisySP/Source/Utility\delayline.h ****         for(size_t i = 0; i < max_size; i++)
  41:D:/OneDrive/Frankencloud/Installable/AudioInterfaces/DaisySeed/DaisyExamples/DaisySP/Source/Utility\delayline.h ****         {
  42:D:/OneDrive/Frankencloud/Installable/AudioInterfaces/DaisySeed/DaisyExamples/DaisySP/Source/Utility\delayline.h ****             line_[i] = T(0);
  40              		.loc 2 42 22 is_stmt 0 view .LVU2
  41 0000 0021     		movs	r1, #0
  42 0002 2A4A     		ldr	r2, .L9
  43              	.LBE34:
  44              	.LBE33:
  45              	.LBE32:
  46              	.LBE31:
   6:DelayEngine.cpp ****     dell_.Init();
  47              		.loc 1 6 1 view .LVU3
  48 0004 38B5     		push	{r3, r4, r5, lr}
  49              		.cfi_def_cfa_offset 16
  50              		.cfi_offset 3, -16
  51              		.cfi_offset 4, -12
  52              		.cfi_offset 5, -8
  53              		.cfi_offset 14, -4
  54 0006 0446     		mov	r4, r0
  55              	.LVL1:
  56              	.LBB43:
  57              	.LBI31:
  35:D:/OneDrive/Frankencloud/Installable/AudioInterfaces/DaisySeed/DaisyExamples/DaisySP/Source/Utility\delayline.h ****     /** clears buffer, sets write ptr to 0, and delay to 1 sample.
  58              		.loc 2 35 10 is_stmt 1 view .LVU4
  59              	.LBB40:
  60              	.LBI32:
  38:D:/OneDrive/Frankencloud/Installable/AudioInterfaces/DaisySeed/DaisyExamples/DaisySP/Source/Utility\delayline.h ****     {
  61              		.loc 2 38 10 view .LVU5
  62              	.LBB37:
  63              	.LBB35:
ARM GAS  C:\Users\lockj\AppData\Local\Temp\cczLlGyy.s 			page 3


  40:D:/OneDrive/Frankencloud/Installable/AudioInterfaces/DaisySeed/DaisyExamples/DaisySP/Source/Utility\delayline.h ****         {
  64              		.loc 2 40 29 view .LVU6
  65              		.loc 2 42 22 is_stmt 0 view .LVU7
  66 0008 0C30     		adds	r0, r0, #12
  67              	.LVL2:
  68              		.loc 2 42 22 view .LVU8
  69              	.LBE35:
  43:D:/OneDrive/Frankencloud/Installable/AudioInterfaces/DaisySeed/DaisyExamples/DaisySP/Source/Utility\delayline.h ****         }
  44:D:/OneDrive/Frankencloud/Installable/AudioInterfaces/DaisySeed/DaisyExamples/DaisySP/Source/Utility\delayline.h ****         write_ptr_ = 0;
  70              		.loc 2 44 20 view .LVU9
  71 000a 0D46     		mov	r5, r1
  72              	.LBE37:
  73              	.LBE40:
  74              	.LBE43:
   6:DelayEngine.cpp ****     dell_.Init();
  75              		.loc 1 6 1 view .LVU10
  76 000c 2DED028B 		vpush.64	{d8}
  77              		.cfi_def_cfa_offset 24
  78              		.cfi_offset 80, -24
  79              		.cfi_offset 81, -20
   6:DelayEngine.cpp ****     dell_.Init();
  80              		.loc 1 6 1 view .LVU11
  81 0010 B0EE408A 		vmov.f32	s16, s0
  82              	.LBB44:
  83              	.LBB41:
  84              	.LBB38:
  85              	.LBB36:
  42:D:/OneDrive/Frankencloud/Installable/AudioInterfaces/DaisySeed/DaisyExamples/DaisySP/Source/Utility\delayline.h ****         }
  86              		.loc 2 42 22 view .LVU12
  87 0014 FFF7FEFF 		bl	memset
  88              	.LVL3:
  42:D:/OneDrive/Frankencloud/Installable/AudioInterfaces/DaisySeed/DaisyExamples/DaisySP/Source/Utility\delayline.h ****         }
  89              		.loc 2 42 22 view .LVU13
  90              	.LBE36:
  91              	.LBE38:
  92              	.LBE41:
  93              	.LBE44:
  94              	.LBB45:
  95              	.LBB46:
  96              	.LBB47:
  97              	.LBB48:
  98 0018 2548     		ldr	r0, .L9+4
  99 001a 2946     		mov	r1, r5
 100 001c 234A     		ldr	r2, .L9
 101 001e 2044     		add	r0, r0, r4
 102              	.LBE48:
 103              	.LBE47:
 104              	.LBE46:
 105              	.LBE45:
 106              	.LBB56:
 107              	.LBB42:
 108              	.LBB39:
 109              		.loc 2 44 20 view .LVU14
 110 0020 6560     		str	r5, [r4, #4]
 111              	.LVL4:
 112              		.loc 2 44 20 view .LVU15
 113              	.LBE39:
ARM GAS  C:\Users\lockj\AppData\Local\Temp\cczLlGyy.s 			page 4


 114              	.LBE42:
 115              	.LBE56:
   8:DelayEngine.cpp ****     delr_.Init();
 116              		.loc 1 8 5 is_stmt 1 view .LVU16
 117              	.LBB57:
 118              	.LBI45:
  35:D:/OneDrive/Frankencloud/Installable/AudioInterfaces/DaisySeed/DaisyExamples/DaisySP/Source/Utility\delayline.h ****     /** clears buffer, sets write ptr to 0, and delay to 1 sample.
 119              		.loc 2 35 10 view .LVU17
 120              	.LBB53:
 121              	.LBB50:
 122              	.LBB49:
  40:D:/OneDrive/Frankencloud/Installable/AudioInterfaces/DaisySeed/DaisyExamples/DaisySP/Source/Utility\delayline.h ****         {
 123              		.loc 2 40 29 view .LVU18
  42:D:/OneDrive/Frankencloud/Installable/AudioInterfaces/DaisySeed/DaisyExamples/DaisySP/Source/Utility\delayline.h ****         }
 124              		.loc 2 42 22 is_stmt 0 view .LVU19
 125 0022 FFF7FEFF 		bl	memset
 126              	.LVL5:
  42:D:/OneDrive/Frankencloud/Installable/AudioInterfaces/DaisySeed/DaisyExamples/DaisySP/Source/Utility\delayline.h ****         }
 127              		.loc 2 42 22 view .LVU20
 128              	.LBE49:
 129              	.LBE50:
 130              	.LBE53:
 131              	.LBE57:
   9:DelayEngine.cpp **** 
  10:DelayEngine.cpp ****     feedback_ = 0.0f;
  11:DelayEngine.cpp ****     drywet_ = currentDrywet_ = 0.4f;
  12:DelayEngine.cpp **** 
  13:DelayEngine.cpp ****     currentDelay_ = delayTarget_ = (sample_rate * 0.75f < (float)kMaxDelaySamples)
 132              		.loc 1 13 49 view .LVU21
 133 0026 F6EE087A 		vmov.f32	s15, #7.5e-1
  10:DelayEngine.cpp ****     drywet_ = currentDrywet_ = 0.4f;
 134              		.loc 1 10 15 view .LVU22
 135 002a 04F58C23 		add	r3, r4, #286720
  14:DelayEngine.cpp ****                                   ? sample_rate * 0.75f
 136              		.loc 1 14 35 view .LVU23
 137 002e DFED216A 		vldr.32	s13, .L9+8
 138              	.LBB58:
 139              	.LBB54:
 140              	.LBB51:
 141              		.loc 2 44 20 view .LVU24
 142 0032 04F50C31 		add	r1, r4, #143360
 143              	.LBE51:
 144              	.LBE54:
 145              	.LBE58:
  10:DelayEngine.cpp ****     drywet_ = currentDrywet_ = 0.4f;
 146              		.loc 1 10 15 view .LVU25
 147 0036 9FED207A 		vldr.32	s14, .L9+12
  13:DelayEngine.cpp ****                                   ? sample_rate * 0.75f
 148              		.loc 1 13 49 view .LVU26
 149 003a 68EE277A 		vmul.f32	s15, s16, s15
  10:DelayEngine.cpp ****     drywet_ = currentDrywet_ = 0.4f;
 150              		.loc 1 10 15 view .LVU27
 151 003e 03F5A460 		add	r0, r3, #1312
 152              	.LBB59:
 153              	.LBB55:
 154              	.LBB52:
 155              		.loc 2 44 20 view .LVU28
ARM GAS  C:\Users\lockj\AppData\Local\Temp\cczLlGyy.s 			page 5


 156 0042 C1F89052 		str	r5, [r1, #656]
 157              	.LVL6:
 158              		.loc 2 44 20 view .LVU29
 159              	.LBE52:
 160              	.LBE55:
 161              	.LBE59:
  10:DelayEngine.cpp ****     drywet_ = currentDrywet_ = 0.4f;
 162              		.loc 1 10 5 is_stmt 1 view .LVU30
  11:DelayEngine.cpp **** 
 163              		.loc 1 11 30 is_stmt 0 view .LVU31
 164 0046 1D4A     		ldr	r2, .L9+16
 165              		.loc 1 14 35 view .LVU32
 166 0048 F4EEE67A 		vcmpe.f32	s15, s13
  10:DelayEngine.cpp ****     drywet_ = currentDrywet_ = 0.4f;
 167              		.loc 1 10 15 view .LVU33
 168 004c 80ED007A 		vstr.32	s14, [r0]
  11:DelayEngine.cpp **** 
 169              		.loc 1 11 5 is_stmt 1 view .LVU34
  11:DelayEngine.cpp **** 
 170              		.loc 1 11 30 is_stmt 0 view .LVU35
 171 0050 03F5A560 		add	r0, r3, #1320
 172              		.loc 1 14 35 view .LVU36
 173 0054 F1EE10FA 		vmrs	APSR_nzcv, FPSCR
  11:DelayEngine.cpp **** 
 174              		.loc 1 11 30 view .LVU37
 175 0058 0260     		str	r2, [r0]	@ float
  11:DelayEngine.cpp **** 
 176              		.loc 1 11 13 view .LVU38
 177 005a 03F22450 		addw	r0, r3, #1316
 178 005e 0260     		str	r2, [r0]	@ float
  13:DelayEngine.cpp ****                                   ? sample_rate * 0.75f
 179              		.loc 1 13 5 is_stmt 1 view .LVU39
 180              		.loc 1 14 35 is_stmt 0 view .LVU40
 181 0060 1FD5     		bpl	.L6
 182              	.LBB60:
 183              	.LBB61:
  45:D:/OneDrive/Frankencloud/Installable/AudioInterfaces/DaisySeed/DaisyExamples/DaisySP/Source/Utility\delayline.h ****         delay_     = 1;
  46:D:/OneDrive/Frankencloud/Installable/AudioInterfaces/DaisySeed/DaisyExamples/DaisySP/Source/Utility\delayline.h ****     }
  47:D:/OneDrive/Frankencloud/Installable/AudioInterfaces/DaisySeed/DaisyExamples/DaisySP/Source/Utility\delayline.h **** 
  48:D:/OneDrive/Frankencloud/Installable/AudioInterfaces/DaisySeed/DaisyExamples/DaisySP/Source/Utility\delayline.h ****     /** sets the delay time in samples
  49:D:/OneDrive/Frankencloud/Installable/AudioInterfaces/DaisySeed/DaisyExamples/DaisySP/Source/Utility\delayline.h ****         If a float is passed in, a fractional component will be calculated for interpolating the de
  50:D:/OneDrive/Frankencloud/Installable/AudioInterfaces/DaisySeed/DaisyExamples/DaisySP/Source/Utility\delayline.h ****     */
  51:D:/OneDrive/Frankencloud/Installable/AudioInterfaces/DaisySeed/DaisyExamples/DaisySP/Source/Utility\delayline.h ****     inline void SetDelay(size_t delay)
  52:D:/OneDrive/Frankencloud/Installable/AudioInterfaces/DaisySeed/DaisyExamples/DaisySP/Source/Utility\delayline.h ****     {
  53:D:/OneDrive/Frankencloud/Installable/AudioInterfaces/DaisySeed/DaisyExamples/DaisySP/Source/Utility\delayline.h ****         frac_  = 0.0f;
  54:D:/OneDrive/Frankencloud/Installable/AudioInterfaces/DaisySeed/DaisyExamples/DaisySP/Source/Utility\delayline.h ****         delay_ = delay < max_size ? delay : max_size - 1;
  55:D:/OneDrive/Frankencloud/Installable/AudioInterfaces/DaisySeed/DaisyExamples/DaisySP/Source/Utility\delayline.h ****     }
  56:D:/OneDrive/Frankencloud/Installable/AudioInterfaces/DaisySeed/DaisyExamples/DaisySP/Source/Utility\delayline.h **** 
  57:D:/OneDrive/Frankencloud/Installable/AudioInterfaces/DaisySeed/DaisyExamples/DaisySP/Source/Utility\delayline.h ****     /** sets the delay time in samples
  58:D:/OneDrive/Frankencloud/Installable/AudioInterfaces/DaisySeed/DaisyExamples/DaisySP/Source/Utility\delayline.h ****         If a float is passed in, a fractional component will be calculated for interpolating the de
  59:D:/OneDrive/Frankencloud/Installable/AudioInterfaces/DaisySeed/DaisyExamples/DaisySP/Source/Utility\delayline.h ****     */
  60:D:/OneDrive/Frankencloud/Installable/AudioInterfaces/DaisySeed/DaisyExamples/DaisySP/Source/Utility\delayline.h ****     inline void SetDelay(float delay)
  61:D:/OneDrive/Frankencloud/Installable/AudioInterfaces/DaisySeed/DaisyExamples/DaisySP/Source/Utility\delayline.h ****     {
  62:D:/OneDrive/Frankencloud/Installable/AudioInterfaces/DaisySeed/DaisyExamples/DaisySP/Source/Utility\delayline.h ****         int32_t int_delay = static_cast<int32_t>(delay);
 184              		.loc 2 62 17 discriminator 1 view .LVU41
 185 0062 FDEEE76A 		vcvt.s32.f32	s13, s15
  63:D:/OneDrive/Frankencloud/Installable/AudioInterfaces/DaisySeed/DaisyExamples/DaisySP/Source/Utility\delayline.h ****         frac_             = delay - static_cast<float>(int_delay);
ARM GAS  C:\Users\lockj\AppData\Local\Temp\cczLlGyy.s 			page 6


  64:D:/OneDrive/Frankencloud/Installable/AudioInterfaces/DaisySeed/DaisyExamples/DaisySP/Source/Utility\delayline.h ****         delay_ = static_cast<size_t>(int_delay) < max_size ? int_delay
 186              		.loc 2 64 60 discriminator 1 view .LVU42
 187 0066 48F69F42 		movw	r2, #35999
 188 006a 16EE900A 		vmov	r0, s13	@ int
  63:D:/OneDrive/Frankencloud/Installable/AudioInterfaces/DaisySeed/DaisyExamples/DaisySP/Source/Utility\delayline.h ****         frac_             = delay - static_cast<float>(int_delay);
 189              		.loc 2 63 37 discriminator 1 view .LVU43
 190 006e B8EEE67A 		vcvt.f32.s32	s14, s13
 191              		.loc 2 64 60 discriminator 1 view .LVU44
 192 0072 9042     		cmp	r0, r2
  63:D:/OneDrive/Frankencloud/Installable/AudioInterfaces/DaisySeed/DaisyExamples/DaisySP/Source/Utility\delayline.h ****         frac_             = delay - static_cast<float>(int_delay);
 193              		.loc 2 63 35 discriminator 1 view .LVU45
 194 0074 37EEC77A 		vsub.f32	s14, s15, s14
 195              		.loc 2 64 60 discriminator 1 view .LVU46
 196 0078 28BF     		it	cs
 197 007a 1046     		movcs	r0, r2
 198 007c 0246     		mov	r2, r0
 199              	.L2:
 200              	.LBE61:
 201              	.LBE60:
  13:DelayEngine.cpp ****                                   ? sample_rate * 0.75f
 202              		.loc 1 13 34 view .LVU47
 203 007e 03F21C50 		addw	r0, r3, #1308
  13:DelayEngine.cpp ****                                   ? sample_rate * 0.75f
 204              		.loc 1 13 19 view .LVU48
 205 0082 03F5A363 		add	r3, r3, #1304
  15:DelayEngine.cpp ****                                   : (float)kMaxDelaySamples;
  16:DelayEngine.cpp **** 
  17:DelayEngine.cpp ****     dell_.SetDelay(currentDelay_);
  18:DelayEngine.cpp ****     delr_.SetDelay(currentDelay_);
  19:DelayEngine.cpp **** }
 206              		.loc 1 19 1 view .LVU49
 207 0086 BDEC028B 		vldm	sp!, {d8}
 208              		.cfi_remember_state
 209              		.cfi_restore 80
 210              		.cfi_restore 81
 211              		.cfi_def_cfa_offset 16
 212              	.LVL7:
  13:DelayEngine.cpp ****                                   ? sample_rate * 0.75f
 213              		.loc 1 13 34 view .LVU50
 214 008a C0ED007A 		vstr.32	s15, [r0]
  13:DelayEngine.cpp ****                                   ? sample_rate * 0.75f
 215              		.loc 1 13 19 view .LVU51
 216 008e C3ED007A 		vstr.32	s15, [r3]
  17:DelayEngine.cpp ****     delr_.SetDelay(currentDelay_);
 217              		.loc 1 17 5 is_stmt 1 view .LVU52
 218              	.LVL8:
 219              	.LBB63:
 220              	.LBI60:
  60:D:/OneDrive/Frankencloud/Installable/AudioInterfaces/DaisySeed/DaisyExamples/DaisySP/Source/Utility\delayline.h ****     {
 221              		.loc 2 60 17 view .LVU53
 222              	.LBB62:
  63:D:/OneDrive/Frankencloud/Installable/AudioInterfaces/DaisySeed/DaisyExamples/DaisySP/Source/Utility\delayline.h ****         delay_ = static_cast<size_t>(int_delay) < max_size ? int_delay
 223              		.loc 2 63 27 is_stmt 0 view .LVU54
 224 0092 84ED007A 		vstr.32	s14, [r4]
 225              		.loc 2 64 16 view .LVU55
 226 0096 A260     		str	r2, [r4, #8]
 227              	.LVL9:
ARM GAS  C:\Users\lockj\AppData\Local\Temp\cczLlGyy.s 			page 7


 228              		.loc 2 64 16 view .LVU56
 229              	.LBE62:
 230              	.LBE63:
  18:DelayEngine.cpp **** }
 231              		.loc 1 18 5 is_stmt 1 view .LVU57
 232              	.LBB64:
 233              	.LBI64:
  60:D:/OneDrive/Frankencloud/Installable/AudioInterfaces/DaisySeed/DaisyExamples/DaisySP/Source/Utility\delayline.h ****     {
 234              		.loc 2 60 17 view .LVU58
 235              	.LBB65:
  63:D:/OneDrive/Frankencloud/Installable/AudioInterfaces/DaisySeed/DaisyExamples/DaisySP/Source/Utility\delayline.h ****         delay_ = static_cast<size_t>(int_delay) < max_size ? int_delay
 236              		.loc 2 63 27 is_stmt 0 view .LVU59
 237 0098 81EDA37A 		vstr.32	s14, [r1, #652]
 238              		.loc 2 64 16 view .LVU60
 239 009c C1F89422 		str	r2, [r1, #660]
 240              	.LVL10:
 241              		.loc 2 64 16 view .LVU61
 242              	.LBE65:
 243              	.LBE64:
 244              		.loc 1 19 1 view .LVU62
 245 00a0 38BD     		pop	{r3, r4, r5, pc}
 246              	.LVL11:
 247              	.L6:
 248              		.cfi_restore_state
  14:DelayEngine.cpp ****                                   : (float)kMaxDelaySamples;
 249              		.loc 1 14 35 view .LVU63
 250 00a2 F0EE667A 		vmov.f32	s15, s13
 251 00a6 48F69F42 		movw	r2, #35999
 252 00aa E8E7     		b	.L2
 253              	.L10:
 254              		.align	2
 255              	.L9:
 256 00ac 80320200 		.word	144000
 257 00b0 98320200 		.word	144024
 258 00b4 00A00C47 		.word	1192009728
 259 00b8 00000000 		.word	0
 260 00bc CDCCCC3E 		.word	1053609165
 261              		.cfi_endproc
 262              	.LFE3512:
 264              		.section	.text._ZN11DelayEngine7ProcessEffRfS0_,"ax",%progbits
 265              		.align	1
 266              		.p2align 2,,3
 267              		.global	_ZN11DelayEngine7ProcessEffRfS0_
 268              		.syntax unified
 269              		.thumb
 270              		.thumb_func
 271              		.fpu fpv5-d16
 273              	_ZN11DelayEngine7ProcessEffRfS0_:
 274              	.LVL12:
 275              	.LFB3513:
  20:DelayEngine.cpp **** 
  21:DelayEngine.cpp **** void DelayEngine::Process(float inl, float inr, float &outl, float &outr)
  22:DelayEngine.cpp **** {
 276              		.loc 1 22 1 is_stmt 1 view -0
 277              		.cfi_startproc
 278              		@ args = 0, pretend = 0, frame = 0
 279              		@ frame_needed = 0, uses_anonymous_args = 0
ARM GAS  C:\Users\lockj\AppData\Local\Temp\cczLlGyy.s 			page 8


  23:DelayEngine.cpp ****     fonepole(currentDelay_, delayTarget_, .00007f);
 280              		.loc 1 23 5 view .LVU65
  22:DelayEngine.cpp ****     fonepole(currentDelay_, delayTarget_, .00007f);
 281              		.loc 1 22 1 is_stmt 0 view .LVU66
 282 0000 2DE9F04F 		push	{r4, r5, r6, r7, r8, r9, r10, fp, lr}
 283              		.cfi_def_cfa_offset 36
 284              		.cfi_offset 4, -36
 285              		.cfi_offset 5, -32
 286              		.cfi_offset 6, -28
 287              		.cfi_offset 7, -24
 288              		.cfi_offset 8, -20
 289              		.cfi_offset 9, -16
 290              		.cfi_offset 10, -12
 291              		.cfi_offset 11, -8
 292              		.cfi_offset 14, -4
 293              	.LBB82:
 294              	.LBB83:
 295              		.file 3 "D:/OneDrive/Frankencloud/Installable/AudioInterfaces/DaisySeed/DaisyExamples/DaisySP/Sour
   1:D:/OneDrive/Frankencloud/Installable/AudioInterfaces/DaisySeed/DaisyExamples/DaisySP/Source/Utility\dsp.h **** /*
   2:D:/OneDrive/Frankencloud/Installable/AudioInterfaces/DaisySeed/DaisyExamples/DaisySP/Source/Utility\dsp.h **** Copyright (c) 2020 Electrosmith, Corp, Emilie Gillet
   3:D:/OneDrive/Frankencloud/Installable/AudioInterfaces/DaisySeed/DaisyExamples/DaisySP/Source/Utility\dsp.h **** 
   4:D:/OneDrive/Frankencloud/Installable/AudioInterfaces/DaisySeed/DaisyExamples/DaisySP/Source/Utility\dsp.h **** Use of this source code is governed by an MIT-style
   5:D:/OneDrive/Frankencloud/Installable/AudioInterfaces/DaisySeed/DaisyExamples/DaisySP/Source/Utility\dsp.h **** license that can be found in the LICENSE file or at
   6:D:/OneDrive/Frankencloud/Installable/AudioInterfaces/DaisySeed/DaisyExamples/DaisySP/Source/Utility\dsp.h **** https://opensource.org/licenses/MIT.
   7:D:/OneDrive/Frankencloud/Installable/AudioInterfaces/DaisySeed/DaisyExamples/DaisySP/Source/Utility\dsp.h **** */
   8:D:/OneDrive/Frankencloud/Installable/AudioInterfaces/DaisySeed/DaisyExamples/DaisySP/Source/Utility\dsp.h **** 
   9:D:/OneDrive/Frankencloud/Installable/AudioInterfaces/DaisySeed/DaisyExamples/DaisySP/Source/Utility\dsp.h **** /** Helpful defines, functions, and other utilities for use in/with daisysp modules.
  10:D:/OneDrive/Frankencloud/Installable/AudioInterfaces/DaisySeed/DaisyExamples/DaisySP/Source/Utility\dsp.h **** */
  11:D:/OneDrive/Frankencloud/Installable/AudioInterfaces/DaisySeed/DaisyExamples/DaisySP/Source/Utility\dsp.h **** #pragma once
  12:D:/OneDrive/Frankencloud/Installable/AudioInterfaces/DaisySeed/DaisyExamples/DaisySP/Source/Utility\dsp.h **** #ifndef DSY_CORE_DSP
  13:D:/OneDrive/Frankencloud/Installable/AudioInterfaces/DaisySeed/DaisyExamples/DaisySP/Source/Utility\dsp.h **** #define DSY_CORE_DSP
  14:D:/OneDrive/Frankencloud/Installable/AudioInterfaces/DaisySeed/DaisyExamples/DaisySP/Source/Utility\dsp.h **** #include <cassert>
  15:D:/OneDrive/Frankencloud/Installable/AudioInterfaces/DaisySeed/DaisyExamples/DaisySP/Source/Utility\dsp.h **** #include <cstdint>
  16:D:/OneDrive/Frankencloud/Installable/AudioInterfaces/DaisySeed/DaisyExamples/DaisySP/Source/Utility\dsp.h **** #include <random>
  17:D:/OneDrive/Frankencloud/Installable/AudioInterfaces/DaisySeed/DaisyExamples/DaisySP/Source/Utility\dsp.h **** #include <cmath>
  18:D:/OneDrive/Frankencloud/Installable/AudioInterfaces/DaisySeed/DaisyExamples/DaisySP/Source/Utility\dsp.h **** 
  19:D:/OneDrive/Frankencloud/Installable/AudioInterfaces/DaisySeed/DaisyExamples/DaisySP/Source/Utility\dsp.h **** /** PIs
  20:D:/OneDrive/Frankencloud/Installable/AudioInterfaces/DaisySeed/DaisyExamples/DaisySP/Source/Utility\dsp.h **** */
  21:D:/OneDrive/Frankencloud/Installable/AudioInterfaces/DaisySeed/DaisyExamples/DaisySP/Source/Utility\dsp.h **** #define PI_F 3.1415927410125732421875f
  22:D:/OneDrive/Frankencloud/Installable/AudioInterfaces/DaisySeed/DaisyExamples/DaisySP/Source/Utility\dsp.h **** #define TWOPI_F (2.0f * PI_F)
  23:D:/OneDrive/Frankencloud/Installable/AudioInterfaces/DaisySeed/DaisyExamples/DaisySP/Source/Utility\dsp.h **** #define HALFPI_F (PI_F * 0.5f)
  24:D:/OneDrive/Frankencloud/Installable/AudioInterfaces/DaisySeed/DaisyExamples/DaisySP/Source/Utility\dsp.h **** #define DSY_MIN(in, mn) (in < mn ? in : mn)
  25:D:/OneDrive/Frankencloud/Installable/AudioInterfaces/DaisySeed/DaisyExamples/DaisySP/Source/Utility\dsp.h **** #define DSY_MAX(in, mx) (in > mx ? in : mx)
  26:D:/OneDrive/Frankencloud/Installable/AudioInterfaces/DaisySeed/DaisyExamples/DaisySP/Source/Utility\dsp.h **** #define DSY_CLAMP(in, mn, mx) (DSY_MIN(DSY_MAX(in, mn), mx))
  27:D:/OneDrive/Frankencloud/Installable/AudioInterfaces/DaisySeed/DaisyExamples/DaisySP/Source/Utility\dsp.h **** #define DSY_COUNTOF(_arr) (sizeof(_arr) / sizeof(_arr[0]))
  28:D:/OneDrive/Frankencloud/Installable/AudioInterfaces/DaisySeed/DaisyExamples/DaisySP/Source/Utility\dsp.h **** 
  29:D:/OneDrive/Frankencloud/Installable/AudioInterfaces/DaisySeed/DaisyExamples/DaisySP/Source/Utility\dsp.h **** namespace daisysp
  30:D:/OneDrive/Frankencloud/Installable/AudioInterfaces/DaisySeed/DaisyExamples/DaisySP/Source/Utility\dsp.h **** {
  31:D:/OneDrive/Frankencloud/Installable/AudioInterfaces/DaisySeed/DaisyExamples/DaisySP/Source/Utility\dsp.h **** //Avoids division for random floats. e.g. rand() * kRandFrac
  32:D:/OneDrive/Frankencloud/Installable/AudioInterfaces/DaisySeed/DaisyExamples/DaisySP/Source/Utility\dsp.h **** static constexpr float kRandFrac = 1.f / (float)RAND_MAX;
  33:D:/OneDrive/Frankencloud/Installable/AudioInterfaces/DaisySeed/DaisyExamples/DaisySP/Source/Utility\dsp.h **** 
  34:D:/OneDrive/Frankencloud/Installable/AudioInterfaces/DaisySeed/DaisyExamples/DaisySP/Source/Utility\dsp.h **** //Convert from semitones to other units. e.g. 2 ^ (kOneTwelfth * x)
  35:D:/OneDrive/Frankencloud/Installable/AudioInterfaces/DaisySeed/DaisyExamples/DaisySP/Source/Utility\dsp.h **** static constexpr float kOneTwelfth = 1.f / 12.f;
  36:D:/OneDrive/Frankencloud/Installable/AudioInterfaces/DaisySeed/DaisyExamples/DaisySP/Source/Utility\dsp.h **** 
  37:D:/OneDrive/Frankencloud/Installable/AudioInterfaces/DaisySeed/DaisyExamples/DaisySP/Source/Utility\dsp.h **** /** efficient floating point min/max
  38:D:/OneDrive/Frankencloud/Installable/AudioInterfaces/DaisySeed/DaisyExamples/DaisySP/Source/Utility\dsp.h **** c/o stephen mccaul
  39:D:/OneDrive/Frankencloud/Installable/AudioInterfaces/DaisySeed/DaisyExamples/DaisySP/Source/Utility\dsp.h **** */
ARM GAS  C:\Users\lockj\AppData\Local\Temp\cczLlGyy.s 			page 9


  40:D:/OneDrive/Frankencloud/Installable/AudioInterfaces/DaisySeed/DaisyExamples/DaisySP/Source/Utility\dsp.h **** inline float fmax(float a, float b)
  41:D:/OneDrive/Frankencloud/Installable/AudioInterfaces/DaisySeed/DaisyExamples/DaisySP/Source/Utility\dsp.h **** {
  42:D:/OneDrive/Frankencloud/Installable/AudioInterfaces/DaisySeed/DaisyExamples/DaisySP/Source/Utility\dsp.h ****     float r;
  43:D:/OneDrive/Frankencloud/Installable/AudioInterfaces/DaisySeed/DaisyExamples/DaisySP/Source/Utility\dsp.h **** #ifdef __arm__
  44:D:/OneDrive/Frankencloud/Installable/AudioInterfaces/DaisySeed/DaisyExamples/DaisySP/Source/Utility\dsp.h ****     asm("vmaxnm.f32 %[d], %[n], %[m]" : [d] "=t"(r) : [n] "t"(a), [m] "t"(b) :);
  45:D:/OneDrive/Frankencloud/Installable/AudioInterfaces/DaisySeed/DaisyExamples/DaisySP/Source/Utility\dsp.h **** #else
  46:D:/OneDrive/Frankencloud/Installable/AudioInterfaces/DaisySeed/DaisyExamples/DaisySP/Source/Utility\dsp.h ****     r = (a > b) ? a : b;
  47:D:/OneDrive/Frankencloud/Installable/AudioInterfaces/DaisySeed/DaisyExamples/DaisySP/Source/Utility\dsp.h **** #endif // __arm__
  48:D:/OneDrive/Frankencloud/Installable/AudioInterfaces/DaisySeed/DaisyExamples/DaisySP/Source/Utility\dsp.h ****     return r;
  49:D:/OneDrive/Frankencloud/Installable/AudioInterfaces/DaisySeed/DaisyExamples/DaisySP/Source/Utility\dsp.h **** }
  50:D:/OneDrive/Frankencloud/Installable/AudioInterfaces/DaisySeed/DaisyExamples/DaisySP/Source/Utility\dsp.h **** 
  51:D:/OneDrive/Frankencloud/Installable/AudioInterfaces/DaisySeed/DaisyExamples/DaisySP/Source/Utility\dsp.h **** inline float fmin(float a, float b)
  52:D:/OneDrive/Frankencloud/Installable/AudioInterfaces/DaisySeed/DaisyExamples/DaisySP/Source/Utility\dsp.h **** {
  53:D:/OneDrive/Frankencloud/Installable/AudioInterfaces/DaisySeed/DaisyExamples/DaisySP/Source/Utility\dsp.h ****     float r;
  54:D:/OneDrive/Frankencloud/Installable/AudioInterfaces/DaisySeed/DaisyExamples/DaisySP/Source/Utility\dsp.h **** #ifdef __arm__
  55:D:/OneDrive/Frankencloud/Installable/AudioInterfaces/DaisySeed/DaisyExamples/DaisySP/Source/Utility\dsp.h ****     asm("vminnm.f32 %[d], %[n], %[m]" : [d] "=t"(r) : [n] "t"(a), [m] "t"(b) :);
  56:D:/OneDrive/Frankencloud/Installable/AudioInterfaces/DaisySeed/DaisyExamples/DaisySP/Source/Utility\dsp.h **** #else
  57:D:/OneDrive/Frankencloud/Installable/AudioInterfaces/DaisySeed/DaisyExamples/DaisySP/Source/Utility\dsp.h ****     r = (a < b) ? a : b;
  58:D:/OneDrive/Frankencloud/Installable/AudioInterfaces/DaisySeed/DaisyExamples/DaisySP/Source/Utility\dsp.h **** #endif // __arm__
  59:D:/OneDrive/Frankencloud/Installable/AudioInterfaces/DaisySeed/DaisyExamples/DaisySP/Source/Utility\dsp.h ****     return r;
  60:D:/OneDrive/Frankencloud/Installable/AudioInterfaces/DaisySeed/DaisyExamples/DaisySP/Source/Utility\dsp.h **** }
  61:D:/OneDrive/Frankencloud/Installable/AudioInterfaces/DaisySeed/DaisyExamples/DaisySP/Source/Utility\dsp.h **** 
  62:D:/OneDrive/Frankencloud/Installable/AudioInterfaces/DaisySeed/DaisyExamples/DaisySP/Source/Utility\dsp.h **** /** quick fp clamp
  63:D:/OneDrive/Frankencloud/Installable/AudioInterfaces/DaisySeed/DaisyExamples/DaisySP/Source/Utility\dsp.h **** */
  64:D:/OneDrive/Frankencloud/Installable/AudioInterfaces/DaisySeed/DaisyExamples/DaisySP/Source/Utility\dsp.h **** inline float fclamp(float in, float min, float max)
  65:D:/OneDrive/Frankencloud/Installable/AudioInterfaces/DaisySeed/DaisyExamples/DaisySP/Source/Utility\dsp.h **** {
  66:D:/OneDrive/Frankencloud/Installable/AudioInterfaces/DaisySeed/DaisyExamples/DaisySP/Source/Utility\dsp.h ****     return fmin(fmax(in, min), max);
  67:D:/OneDrive/Frankencloud/Installable/AudioInterfaces/DaisySeed/DaisyExamples/DaisySP/Source/Utility\dsp.h **** }
  68:D:/OneDrive/Frankencloud/Installable/AudioInterfaces/DaisySeed/DaisyExamples/DaisySP/Source/Utility\dsp.h **** 
  69:D:/OneDrive/Frankencloud/Installable/AudioInterfaces/DaisySeed/DaisyExamples/DaisySP/Source/Utility\dsp.h **** /** From Musicdsp.org "Fast power and root estimates for 32bit floats)
  70:D:/OneDrive/Frankencloud/Installable/AudioInterfaces/DaisySeed/DaisyExamples/DaisySP/Source/Utility\dsp.h **** Original code by Stefan Stenzel
  71:D:/OneDrive/Frankencloud/Installable/AudioInterfaces/DaisySeed/DaisyExamples/DaisySP/Source/Utility\dsp.h **** These are approximations
  72:D:/OneDrive/Frankencloud/Installable/AudioInterfaces/DaisySeed/DaisyExamples/DaisySP/Source/Utility\dsp.h **** */
  73:D:/OneDrive/Frankencloud/Installable/AudioInterfaces/DaisySeed/DaisyExamples/DaisySP/Source/Utility\dsp.h **** inline float fastpower(float f, int n)
  74:D:/OneDrive/Frankencloud/Installable/AudioInterfaces/DaisySeed/DaisyExamples/DaisySP/Source/Utility\dsp.h **** {
  75:D:/OneDrive/Frankencloud/Installable/AudioInterfaces/DaisySeed/DaisyExamples/DaisySP/Source/Utility\dsp.h ****     long *lp, l;
  76:D:/OneDrive/Frankencloud/Installable/AudioInterfaces/DaisySeed/DaisyExamples/DaisySP/Source/Utility\dsp.h ****     lp = (long *)(&f);
  77:D:/OneDrive/Frankencloud/Installable/AudioInterfaces/DaisySeed/DaisyExamples/DaisySP/Source/Utility\dsp.h ****     l  = *lp;
  78:D:/OneDrive/Frankencloud/Installable/AudioInterfaces/DaisySeed/DaisyExamples/DaisySP/Source/Utility\dsp.h ****     l -= 0x3F800000;
  79:D:/OneDrive/Frankencloud/Installable/AudioInterfaces/DaisySeed/DaisyExamples/DaisySP/Source/Utility\dsp.h ****     l <<= (n - 1);
  80:D:/OneDrive/Frankencloud/Installable/AudioInterfaces/DaisySeed/DaisyExamples/DaisySP/Source/Utility\dsp.h ****     l += 0x3F800000;
  81:D:/OneDrive/Frankencloud/Installable/AudioInterfaces/DaisySeed/DaisyExamples/DaisySP/Source/Utility\dsp.h ****     *lp = l;
  82:D:/OneDrive/Frankencloud/Installable/AudioInterfaces/DaisySeed/DaisyExamples/DaisySP/Source/Utility\dsp.h ****     return f;
  83:D:/OneDrive/Frankencloud/Installable/AudioInterfaces/DaisySeed/DaisyExamples/DaisySP/Source/Utility\dsp.h **** }
  84:D:/OneDrive/Frankencloud/Installable/AudioInterfaces/DaisySeed/DaisyExamples/DaisySP/Source/Utility\dsp.h **** 
  85:D:/OneDrive/Frankencloud/Installable/AudioInterfaces/DaisySeed/DaisyExamples/DaisySP/Source/Utility\dsp.h **** inline float fastroot(float f, int n)
  86:D:/OneDrive/Frankencloud/Installable/AudioInterfaces/DaisySeed/DaisyExamples/DaisySP/Source/Utility\dsp.h **** {
  87:D:/OneDrive/Frankencloud/Installable/AudioInterfaces/DaisySeed/DaisyExamples/DaisySP/Source/Utility\dsp.h ****     long *lp, l;
  88:D:/OneDrive/Frankencloud/Installable/AudioInterfaces/DaisySeed/DaisyExamples/DaisySP/Source/Utility\dsp.h ****     lp = (long *)(&f);
  89:D:/OneDrive/Frankencloud/Installable/AudioInterfaces/DaisySeed/DaisyExamples/DaisySP/Source/Utility\dsp.h ****     l  = *lp;
  90:D:/OneDrive/Frankencloud/Installable/AudioInterfaces/DaisySeed/DaisyExamples/DaisySP/Source/Utility\dsp.h ****     l -= 0x3F800000;
  91:D:/OneDrive/Frankencloud/Installable/AudioInterfaces/DaisySeed/DaisyExamples/DaisySP/Source/Utility\dsp.h ****     l >>= (n - 1);
  92:D:/OneDrive/Frankencloud/Installable/AudioInterfaces/DaisySeed/DaisyExamples/DaisySP/Source/Utility\dsp.h ****     l += 0x3F800000;
  93:D:/OneDrive/Frankencloud/Installable/AudioInterfaces/DaisySeed/DaisyExamples/DaisySP/Source/Utility\dsp.h ****     *lp = l;
  94:D:/OneDrive/Frankencloud/Installable/AudioInterfaces/DaisySeed/DaisyExamples/DaisySP/Source/Utility\dsp.h ****     return f;
  95:D:/OneDrive/Frankencloud/Installable/AudioInterfaces/DaisySeed/DaisyExamples/DaisySP/Source/Utility\dsp.h **** }
  96:D:/OneDrive/Frankencloud/Installable/AudioInterfaces/DaisySeed/DaisyExamples/DaisySP/Source/Utility\dsp.h **** 
ARM GAS  C:\Users\lockj\AppData\Local\Temp\cczLlGyy.s 			page 10


  97:D:/OneDrive/Frankencloud/Installable/AudioInterfaces/DaisySeed/DaisyExamples/DaisySP/Source/Utility\dsp.h **** /** Significantly more efficient than fmodf(x, 1.0f) for calculating
  98:D:/OneDrive/Frankencloud/Installable/AudioInterfaces/DaisySeed/DaisyExamples/DaisySP/Source/Utility\dsp.h ****  *  the decimal part of a floating point value.
  99:D:/OneDrive/Frankencloud/Installable/AudioInterfaces/DaisySeed/DaisyExamples/DaisySP/Source/Utility\dsp.h ****  */
 100:D:/OneDrive/Frankencloud/Installable/AudioInterfaces/DaisySeed/DaisyExamples/DaisySP/Source/Utility\dsp.h **** inline float fastmod1f(float x)
 101:D:/OneDrive/Frankencloud/Installable/AudioInterfaces/DaisySeed/DaisyExamples/DaisySP/Source/Utility\dsp.h **** {
 102:D:/OneDrive/Frankencloud/Installable/AudioInterfaces/DaisySeed/DaisyExamples/DaisySP/Source/Utility\dsp.h ****     return x - static_cast<int>(x);
 103:D:/OneDrive/Frankencloud/Installable/AudioInterfaces/DaisySeed/DaisyExamples/DaisySP/Source/Utility\dsp.h **** }
 104:D:/OneDrive/Frankencloud/Installable/AudioInterfaces/DaisySeed/DaisyExamples/DaisySP/Source/Utility\dsp.h **** 
 105:D:/OneDrive/Frankencloud/Installable/AudioInterfaces/DaisySeed/DaisyExamples/DaisySP/Source/Utility\dsp.h **** /** From http://openaudio.blogspot.com/2017/02/faster-log10-and-pow.html
 106:D:/OneDrive/Frankencloud/Installable/AudioInterfaces/DaisySeed/DaisyExamples/DaisySP/Source/Utility\dsp.h **** No approximation, pow10f(x) gives a 90% speed increase over powf(10.f, x)
 107:D:/OneDrive/Frankencloud/Installable/AudioInterfaces/DaisySeed/DaisyExamples/DaisySP/Source/Utility\dsp.h **** */
 108:D:/OneDrive/Frankencloud/Installable/AudioInterfaces/DaisySeed/DaisyExamples/DaisySP/Source/Utility\dsp.h **** inline float pow10f(float f)
 109:D:/OneDrive/Frankencloud/Installable/AudioInterfaces/DaisySeed/DaisyExamples/DaisySP/Source/Utility\dsp.h **** {
 110:D:/OneDrive/Frankencloud/Installable/AudioInterfaces/DaisySeed/DaisyExamples/DaisySP/Source/Utility\dsp.h ****     return expf(2.302585092994046f * f);
 111:D:/OneDrive/Frankencloud/Installable/AudioInterfaces/DaisySeed/DaisyExamples/DaisySP/Source/Utility\dsp.h **** }
 112:D:/OneDrive/Frankencloud/Installable/AudioInterfaces/DaisySeed/DaisyExamples/DaisySP/Source/Utility\dsp.h **** 
 113:D:/OneDrive/Frankencloud/Installable/AudioInterfaces/DaisySeed/DaisyExamples/DaisySP/Source/Utility\dsp.h **** /* Original code for fastlog2f by Dr. Paul Beckmann from the ARM community forum, adapted from the 
 114:D:/OneDrive/Frankencloud/Installable/AudioInterfaces/DaisySeed/DaisyExamples/DaisySP/Source/Utility\dsp.h **** About 25% performance increase over std::log10f
 115:D:/OneDrive/Frankencloud/Installable/AudioInterfaces/DaisySeed/DaisyExamples/DaisySP/Source/Utility\dsp.h **** */
 116:D:/OneDrive/Frankencloud/Installable/AudioInterfaces/DaisySeed/DaisyExamples/DaisySP/Source/Utility\dsp.h **** inline float fastlog2f(float f)
 117:D:/OneDrive/Frankencloud/Installable/AudioInterfaces/DaisySeed/DaisyExamples/DaisySP/Source/Utility\dsp.h **** {
 118:D:/OneDrive/Frankencloud/Installable/AudioInterfaces/DaisySeed/DaisyExamples/DaisySP/Source/Utility\dsp.h ****     float frac;
 119:D:/OneDrive/Frankencloud/Installable/AudioInterfaces/DaisySeed/DaisyExamples/DaisySP/Source/Utility\dsp.h ****     int   exp;
 120:D:/OneDrive/Frankencloud/Installable/AudioInterfaces/DaisySeed/DaisyExamples/DaisySP/Source/Utility\dsp.h ****     frac = frexpf(fabsf(f), &exp);
 121:D:/OneDrive/Frankencloud/Installable/AudioInterfaces/DaisySeed/DaisyExamples/DaisySP/Source/Utility\dsp.h ****     f    = 1.23149591368684f;
 122:D:/OneDrive/Frankencloud/Installable/AudioInterfaces/DaisySeed/DaisyExamples/DaisySP/Source/Utility\dsp.h ****     f *= frac;
 123:D:/OneDrive/Frankencloud/Installable/AudioInterfaces/DaisySeed/DaisyExamples/DaisySP/Source/Utility\dsp.h ****     f += -4.11852516267426f;
 124:D:/OneDrive/Frankencloud/Installable/AudioInterfaces/DaisySeed/DaisyExamples/DaisySP/Source/Utility\dsp.h ****     f *= frac;
 125:D:/OneDrive/Frankencloud/Installable/AudioInterfaces/DaisySeed/DaisyExamples/DaisySP/Source/Utility\dsp.h ****     f += 6.02197014179219f;
 126:D:/OneDrive/Frankencloud/Installable/AudioInterfaces/DaisySeed/DaisyExamples/DaisySP/Source/Utility\dsp.h ****     f *= frac;
 127:D:/OneDrive/Frankencloud/Installable/AudioInterfaces/DaisySeed/DaisyExamples/DaisySP/Source/Utility\dsp.h ****     f += -3.13396450166353f;
 128:D:/OneDrive/Frankencloud/Installable/AudioInterfaces/DaisySeed/DaisyExamples/DaisySP/Source/Utility\dsp.h ****     f += exp;
 129:D:/OneDrive/Frankencloud/Installable/AudioInterfaces/DaisySeed/DaisyExamples/DaisySP/Source/Utility\dsp.h ****     return (f);
 130:D:/OneDrive/Frankencloud/Installable/AudioInterfaces/DaisySeed/DaisyExamples/DaisySP/Source/Utility\dsp.h **** }
 131:D:/OneDrive/Frankencloud/Installable/AudioInterfaces/DaisySeed/DaisyExamples/DaisySP/Source/Utility\dsp.h **** 
 132:D:/OneDrive/Frankencloud/Installable/AudioInterfaces/DaisySeed/DaisyExamples/DaisySP/Source/Utility\dsp.h **** inline float fastlog10f(float f)
 133:D:/OneDrive/Frankencloud/Installable/AudioInterfaces/DaisySeed/DaisyExamples/DaisySP/Source/Utility\dsp.h **** {
 134:D:/OneDrive/Frankencloud/Installable/AudioInterfaces/DaisySeed/DaisyExamples/DaisySP/Source/Utility\dsp.h ****     return fastlog2f(f) * 0.3010299956639812f;
 135:D:/OneDrive/Frankencloud/Installable/AudioInterfaces/DaisySeed/DaisyExamples/DaisySP/Source/Utility\dsp.h **** }
 136:D:/OneDrive/Frankencloud/Installable/AudioInterfaces/DaisySeed/DaisyExamples/DaisySP/Source/Utility\dsp.h **** 
 137:D:/OneDrive/Frankencloud/Installable/AudioInterfaces/DaisySeed/DaisyExamples/DaisySP/Source/Utility\dsp.h **** /** Midi to frequency helper
 138:D:/OneDrive/Frankencloud/Installable/AudioInterfaces/DaisySeed/DaisyExamples/DaisySP/Source/Utility\dsp.h **** */
 139:D:/OneDrive/Frankencloud/Installable/AudioInterfaces/DaisySeed/DaisyExamples/DaisySP/Source/Utility\dsp.h **** inline float mtof(float m)
 140:D:/OneDrive/Frankencloud/Installable/AudioInterfaces/DaisySeed/DaisyExamples/DaisySP/Source/Utility\dsp.h **** {
 141:D:/OneDrive/Frankencloud/Installable/AudioInterfaces/DaisySeed/DaisyExamples/DaisySP/Source/Utility\dsp.h ****     return powf(2, (m - 69.0f) / 12.0f) * 440.0f;
 142:D:/OneDrive/Frankencloud/Installable/AudioInterfaces/DaisySeed/DaisyExamples/DaisySP/Source/Utility\dsp.h **** }
 143:D:/OneDrive/Frankencloud/Installable/AudioInterfaces/DaisySeed/DaisyExamples/DaisySP/Source/Utility\dsp.h **** 
 144:D:/OneDrive/Frankencloud/Installable/AudioInterfaces/DaisySeed/DaisyExamples/DaisySP/Source/Utility\dsp.h **** 
 145:D:/OneDrive/Frankencloud/Installable/AudioInterfaces/DaisySeed/DaisyExamples/DaisySP/Source/Utility\dsp.h **** /** one pole lpf
 146:D:/OneDrive/Frankencloud/Installable/AudioInterfaces/DaisySeed/DaisyExamples/DaisySP/Source/Utility\dsp.h **** out is passed by reference, and must be retained between
 147:D:/OneDrive/Frankencloud/Installable/AudioInterfaces/DaisySeed/DaisyExamples/DaisySP/Source/Utility\dsp.h **** calls to properly filter the signal
 148:D:/OneDrive/Frankencloud/Installable/AudioInterfaces/DaisySeed/DaisyExamples/DaisySP/Source/Utility\dsp.h **** coeff can be calculated:
 149:D:/OneDrive/Frankencloud/Installable/AudioInterfaces/DaisySeed/DaisyExamples/DaisySP/Source/Utility\dsp.h **** coeff = 1.0 / (time * sample_rate) ; where time is in seconds
 150:D:/OneDrive/Frankencloud/Installable/AudioInterfaces/DaisySeed/DaisyExamples/DaisySP/Source/Utility\dsp.h **** */
 151:D:/OneDrive/Frankencloud/Installable/AudioInterfaces/DaisySeed/DaisyExamples/DaisySP/Source/Utility\dsp.h **** inline void fonepole(float &out, float in, float coeff)
 152:D:/OneDrive/Frankencloud/Installable/AudioInterfaces/DaisySeed/DaisyExamples/DaisySP/Source/Utility\dsp.h **** {
 153:D:/OneDrive/Frankencloud/Installable/AudioInterfaces/DaisySeed/DaisyExamples/DaisySP/Source/Utility\dsp.h ****     out += coeff * (in - out);
ARM GAS  C:\Users\lockj\AppData\Local\Temp\cczLlGyy.s 			page 11


 296              		.loc 3 153 9 view .LVU67
 297 0004 00F58C24 		add	r4, r0, #286720
 298 0008 DFED556A 		vldr.32	s13, .L13
 299              	.LBE83:
 300              	.LBE82:
 301              	.LBB90:
 302              	.LBB91:
  65:D:/OneDrive/Frankencloud/Installable/AudioInterfaces/DaisySeed/DaisyExamples/DaisySP/Source/Utility\delayline.h ****                                                            : max_size - 1;
  66:D:/OneDrive/Frankencloud/Installable/AudioInterfaces/DaisySeed/DaisyExamples/DaisySP/Source/Utility\delayline.h ****     }
  67:D:/OneDrive/Frankencloud/Installable/AudioInterfaces/DaisySeed/DaisyExamples/DaisySP/Source/Utility\delayline.h **** 
  68:D:/OneDrive/Frankencloud/Installable/AudioInterfaces/DaisySeed/DaisyExamples/DaisySP/Source/Utility\delayline.h ****     /** writes the sample of type T to the delay line, and advances the write ptr
  69:D:/OneDrive/Frankencloud/Installable/AudioInterfaces/DaisySeed/DaisyExamples/DaisySP/Source/Utility\delayline.h ****     */
  70:D:/OneDrive/Frankencloud/Installable/AudioInterfaces/DaisySeed/DaisyExamples/DaisySP/Source/Utility\delayline.h ****     inline void Write(const T sample)
  71:D:/OneDrive/Frankencloud/Installable/AudioInterfaces/DaisySeed/DaisyExamples/DaisySP/Source/Utility\delayline.h ****     {
  72:D:/OneDrive/Frankencloud/Installable/AudioInterfaces/DaisySeed/DaisyExamples/DaisySP/Source/Utility\delayline.h ****         line_[write_ptr_] = sample;
  73:D:/OneDrive/Frankencloud/Installable/AudioInterfaces/DaisySeed/DaisyExamples/DaisySP/Source/Utility\delayline.h ****         write_ptr_        = (write_ptr_ - 1 + max_size) % max_size;
  74:D:/OneDrive/Frankencloud/Installable/AudioInterfaces/DaisySeed/DaisyExamples/DaisySP/Source/Utility\delayline.h ****     }
  75:D:/OneDrive/Frankencloud/Installable/AudioInterfaces/DaisySeed/DaisyExamples/DaisySP/Source/Utility\delayline.h **** 
  76:D:/OneDrive/Frankencloud/Installable/AudioInterfaces/DaisySeed/DaisyExamples/DaisySP/Source/Utility\delayline.h ****     /** returns the next sample of type T in the delay line, interpolated if necessary.
  77:D:/OneDrive/Frankencloud/Installable/AudioInterfaces/DaisySeed/DaisyExamples/DaisySP/Source/Utility\delayline.h ****     */
  78:D:/OneDrive/Frankencloud/Installable/AudioInterfaces/DaisySeed/DaisyExamples/DaisySP/Source/Utility\delayline.h ****     inline const T Read() const
  79:D:/OneDrive/Frankencloud/Installable/AudioInterfaces/DaisySeed/DaisyExamples/DaisySP/Source/Utility\delayline.h ****     {
  80:D:/OneDrive/Frankencloud/Installable/AudioInterfaces/DaisySeed/DaisyExamples/DaisySP/Source/Utility\delayline.h ****         T a = line_[(write_ptr_ + delay_) % max_size];
 303              		.loc 2 80 22 view .LVU68
 304 000c D0F80490 		ldr	r9, [r0, #4]
 305              	.LBE91:
 306              	.LBE90:
 307              	.LBB103:
 308              	.LBB104:
  64:D:/OneDrive/Frankencloud/Installable/AudioInterfaces/DaisySeed/DaisyExamples/DaisySP/Source/Utility\delayline.h ****                                                            : max_size - 1;
 309              		.loc 2 64 60 view .LVU69
 310 0010 48F69F4E 		movw	lr, #35999
 311              	.LVL13:
  64:D:/OneDrive/Frankencloud/Installable/AudioInterfaces/DaisySeed/DaisyExamples/DaisySP/Source/Utility\delayline.h ****                                                            : max_size - 1;
 312              		.loc 2 64 60 view .LVU70
 313              	.LBE104:
 314              	.LBE103:
 315              	.LBB111:
 316              	.LBI82:
 151:D:/OneDrive/Frankencloud/Installable/AudioInterfaces/DaisySeed/DaisyExamples/DaisySP/Source/Utility\dsp.h **** {
 317              		.loc 3 151 13 is_stmt 1 view .LVU71
 318              	.LBB84:
 319              		.loc 3 153 5 view .LVU72
 320              		.loc 3 153 9 is_stmt 0 view .LVU73
 321 0014 04F5A363 		add	r3, r4, #1304
 322              	.LBE84:
 323              	.LBE111:
 324              		.loc 1 23 13 view .LVU74
 325 0018 04F21C56 		addw	r6, r4, #1308
 326              	.LBB112:
 327              	.LBB113:
 328              		.loc 3 153 9 view .LVU75
 329 001c 04F5A567 		add	r7, r4, #1320
 330 0020 9FED506A 		vldr.32	s12, .L13+4
 331              	.LBE113:
 332              	.LBE112:
 333              	.LBB120:
ARM GAS  C:\Users\lockj\AppData\Local\Temp\cczLlGyy.s 			page 12


 334              	.LBB85:
 335 0024 D3ED007A 		vldr.32	s15, [r3]
 336              	.LBE85:
 337              	.LBE120:
  22:DelayEngine.cpp ****     fonepole(currentDelay_, delayTarget_, .00007f);
 338              		.loc 1 22 1 view .LVU76
 339 0028 04EE902A 		vmov	s9, r2	@ int
 340              	.LBB121:
 341              	.LBB86:
 342              		.loc 3 153 24 view .LVU77
 343 002c 96ED007A 		vldr.32	s14, [r6]
 344              	.LBE86:
 345              	.LBE121:
  24:DelayEngine.cpp ****     fonepole(currentDrywet_, drywet_, .0005f);
 346              		.loc 1 24 13 view .LVU78
 347 0030 04F22456 		addw	r6, r4, #1316
  25:DelayEngine.cpp **** 
  26:DelayEngine.cpp ****     dell_.SetDelay(currentDelay_);
  27:DelayEngine.cpp ****     delr_.SetDelay(currentDelay_);
  28:DelayEngine.cpp **** 
  29:DelayEngine.cpp ****     float dlyL = dell_.Read();
  30:DelayEngine.cpp ****     float dlyR = delr_.Read();
  31:DelayEngine.cpp **** 
  32:DelayEngine.cpp ****     dell_.Write(inl + (feedback_ * dlyL));
 348              		.loc 1 32 24 view .LVU79
 349 0034 04F5A464 		add	r4, r4, #1312
 350              	.LBB122:
 351              	.LBB123:
  63:D:/OneDrive/Frankencloud/Installable/AudioInterfaces/DaisySeed/DaisyExamples/DaisySP/Source/Utility\delayline.h ****         delay_ = static_cast<size_t>(int_delay) < max_size ? int_delay
 352              		.loc 2 63 27 view .LVU80
 353 0038 00F50C35 		add	r5, r0, #143360
 354              	.LBE123:
 355              	.LBE122:
 356              	.LBB126:
 357              	.LBB87:
 358              		.loc 3 153 24 view .LVU81
 359 003c 37EE677A 		vsub.f32	s14, s14, s15
 360              	.LBE87:
 361              	.LBE126:
 362              	.LBB127:
 363              	.LBB128:
 364              		.loc 2 80 22 view .LVU82
 365 0040 D5F89082 		ldr	r8, [r5, #656]
 366              	.LBE128:
 367              	.LBE127:
 368              	.LBB140:
 369              	.LBB88:
 370              		.loc 3 153 9 view .LVU83
 371 0044 E7EE267A 		vfma.f32	s15, s14, s13
 372              	.LBE88:
 373              	.LBE140:
 374              	.LBB141:
 375              	.LBB105:
  62:D:/OneDrive/Frankencloud/Installable/AudioInterfaces/DaisySeed/DaisyExamples/DaisySP/Source/Utility\delayline.h ****         frac_             = delay - static_cast<float>(int_delay);
 376              		.loc 2 62 17 view .LVU84
 377 0048 BDEEE77A 		vcvt.s32.f32	s14, s15
 378              	.LBE105:
ARM GAS  C:\Users\lockj\AppData\Local\Temp\cczLlGyy.s 			page 13


 379              	.LBE141:
 380              	.LBB142:
 381              	.LBB89:
 382              		.loc 3 153 9 view .LVU85
 383 004c C3ED007A 		vstr.32	s15, [r3]
 384              	.LVL14:
 385              		.loc 3 153 9 view .LVU86
 386              	.LBE89:
 387              	.LBE142:
  24:DelayEngine.cpp **** 
 388              		.loc 1 24 5 is_stmt 1 view .LVU87
 389              	.LBB143:
 390              	.LBI112:
 151:D:/OneDrive/Frankencloud/Installable/AudioInterfaces/DaisySeed/DaisyExamples/DaisySP/Source/Utility\dsp.h **** {
 391              		.loc 3 151 13 view .LVU88
 392              	.LBB114:
 393              		.loc 3 153 5 view .LVU89
 394              	.LBE114:
 395              	.LBE143:
 396              	.LBB144:
 397              	.LBB106:
  63:D:/OneDrive/Frankencloud/Installable/AudioInterfaces/DaisySeed/DaisyExamples/DaisySP/Source/Utility\delayline.h ****         delay_ = static_cast<size_t>(int_delay) < max_size ? int_delay
 398              		.loc 2 63 37 is_stmt 0 view .LVU90
 399 0050 F8EEC76A 		vcvt.f32.s32	s13, s14
  64:D:/OneDrive/Frankencloud/Installable/AudioInterfaces/DaisySeed/DaisyExamples/DaisySP/Source/Utility\delayline.h ****                                                            : max_size - 1;
 400              		.loc 2 64 60 view .LVU91
 401 0054 17EE103A 		vmov	r3, s14	@ int
 402              	.LBE106:
 403              	.LBE144:
 404              	.LBB145:
 405              	.LBB115:
 406              		.loc 3 153 9 view .LVU92
 407 0058 97ED007A 		vldr.32	s14, [r7]
 408              	.LBE115:
 409              	.LBE145:
 410              	.LBB146:
 411              	.LBB107:
  64:D:/OneDrive/Frankencloud/Installable/AudioInterfaces/DaisySeed/DaisyExamples/DaisySP/Source/Utility\delayline.h ****                                                            : max_size - 1;
 412              		.loc 2 64 60 view .LVU93
 413 005c 7345     		cmp	r3, lr
  63:D:/OneDrive/Frankencloud/Installable/AudioInterfaces/DaisySeed/DaisyExamples/DaisySP/Source/Utility\delayline.h ****         delay_ = static_cast<size_t>(int_delay) < max_size ? int_delay
 414              		.loc 2 63 35 view .LVU94
 415 005e 77EEE67A 		vsub.f32	s15, s15, s13
 416              	.LBE107:
 417              	.LBE146:
 418              	.LBB147:
 419              	.LBB116:
 420              		.loc 3 153 24 view .LVU95
 421 0062 D6ED006A 		vldr.32	s13, [r6]
 422              	.LBE116:
 423              	.LBE147:
 424              	.LBB148:
 425              	.LBB108:
  64:D:/OneDrive/Frankencloud/Installable/AudioInterfaces/DaisySeed/DaisyExamples/DaisySP/Source/Utility\delayline.h ****                                                            : max_size - 1;
 426              		.loc 2 64 60 view .LVU96
 427 0066 28BF     		it	cs
 428 0068 7346     		movcs	r3, lr
ARM GAS  C:\Users\lockj\AppData\Local\Temp\cczLlGyy.s 			page 14


 429              	.LBE108:
 430              	.LBE148:
 431              	.LBB149:
 432              	.LBB92:
 433              		.loc 2 80 43 view .LVU97
 434 006a 48F6A046 		movw	r6, #36000
 435              	.LBE92:
 436              	.LBE149:
 437              	.LBB150:
 438              	.LBB117:
 439              		.loc 3 153 24 view .LVU98
 440 006e 76EEC76A 		vsub.f32	s13, s13, s14
 441              	.LBE117:
 442              	.LBE150:
 443              	.LBB151:
 444              	.LBB93:
 445              		.loc 2 80 33 view .LVU99
 446 0072 03EB090C 		add	ip, r3, r9
 447              	.LBE93:
 448              	.LBE151:
 449              	.LBB152:
 450              	.LBB118:
 451              		.loc 3 153 9 view .LVU100
 452 0076 A6EE867A 		vfma.f32	s14, s13, s12
 453              	.LBE118:
 454              	.LBE152:
 455              	.LBB153:
 456              	.LBB94:
  81:D:/OneDrive/Frankencloud/Installable/AudioInterfaces/DaisySeed/DaisyExamples/DaisySP/Source/Utility\delayline.h ****         T b = line_[(write_ptr_ + delay_ + 1) % max_size];
 457              		.loc 2 81 42 view .LVU101
 458 007a 0CF1010A 		add	r10, ip, #1
 459              	.LBE94:
 460              	.LBE153:
 461              	.LBB154:
 462              	.LBB119:
 463              		.loc 3 153 9 view .LVU102
 464 007e 87ED007A 		vstr.32	s14, [r7]
 465              	.LVL15:
 466              		.loc 3 153 9 view .LVU103
 467              	.LBE119:
 468              	.LBE154:
  26:DelayEngine.cpp ****     delr_.SetDelay(currentDelay_);
 469              		.loc 1 26 5 is_stmt 1 view .LVU104
 470              	.LBB155:
 471              	.LBI103:
  60:D:/OneDrive/Frankencloud/Installable/AudioInterfaces/DaisySeed/DaisyExamples/DaisySP/Source/Utility\delayline.h ****     {
 472              		.loc 2 60 17 view .LVU105
  60:D:/OneDrive/Frankencloud/Installable/AudioInterfaces/DaisySeed/DaisyExamples/DaisySP/Source/Utility\delayline.h ****     {
 473              		.loc 2 60 17 is_stmt 0 view .LVU106
 474              	.LBE155:
 475              		.loc 1 32 24 view .LVU107
 476 0082 D4ED005A 		vldr.32	s11, [r4]
 477              	.LBB156:
 478              	.LBB95:
  80:D:/OneDrive/Frankencloud/Installable/AudioInterfaces/DaisySeed/DaisyExamples/DaisySP/Source/Utility\delayline.h ****         T b = line_[(write_ptr_ + delay_ + 1) % max_size];
 479              		.loc 2 80 43 view .LVU108
 480 0086 384C     		ldr	r4, .L13+8
ARM GAS  C:\Users\lockj\AppData\Local\Temp\cczLlGyy.s 			page 15


 481              	.LVL16:
  80:D:/OneDrive/Frankencloud/Installable/AudioInterfaces/DaisySeed/DaisyExamples/DaisySP/Source/Utility\delayline.h ****         T b = line_[(write_ptr_ + delay_ + 1) % max_size];
 482              		.loc 2 80 43 view .LVU109
 483              	.LBE95:
 484              	.LBE156:
 485              	.LBB157:
 486              	.LBB109:
  63:D:/OneDrive/Frankencloud/Installable/AudioInterfaces/DaisySeed/DaisyExamples/DaisySP/Source/Utility\delayline.h ****         delay_ = static_cast<size_t>(int_delay) < max_size ? int_delay
 487              		.loc 2 63 27 view .LVU110
 488 0088 C0ED007A 		vstr.32	s15, [r0]
 489              	.LBE109:
 490              	.LBE157:
 491              	.LBB158:
 492              	.LBB96:
  80:D:/OneDrive/Frankencloud/Installable/AudioInterfaces/DaisySeed/DaisyExamples/DaisySP/Source/Utility\delayline.h ****         T b = line_[(write_ptr_ + delay_ + 1) % max_size];
 493              		.loc 2 80 43 view .LVU111
 494 008c A4FB0C2B 		umull	r2, fp, r4, ip
 495              	.LVL17:
  80:D:/OneDrive/Frankencloud/Installable/AudioInterfaces/DaisySeed/DaisyExamples/DaisySP/Source/Utility\delayline.h ****         T b = line_[(write_ptr_ + delay_ + 1) % max_size];
 496              		.loc 2 80 43 view .LVU112
 497              	.LBE96:
 498              	.LBE158:
 499              	.LBB159:
 500              	.LBB110:
  64:D:/OneDrive/Frankencloud/Installable/AudioInterfaces/DaisySeed/DaisyExamples/DaisySP/Source/Utility\delayline.h ****                                                            : max_size - 1;
 501              		.loc 2 64 16 view .LVU113
 502 0090 8360     		str	r3, [r0, #8]
 503              	.LVL18:
  64:D:/OneDrive/Frankencloud/Installable/AudioInterfaces/DaisySeed/DaisyExamples/DaisySP/Source/Utility\delayline.h ****                                                            : max_size - 1;
 504              		.loc 2 64 16 view .LVU114
 505              	.LBE110:
 506              	.LBE159:
  27:DelayEngine.cpp **** 
 507              		.loc 1 27 5 is_stmt 1 view .LVU115
 508              	.LBB160:
 509              	.LBI122:
  60:D:/OneDrive/Frankencloud/Installable/AudioInterfaces/DaisySeed/DaisyExamples/DaisySP/Source/Utility\delayline.h ****     {
 510              		.loc 2 60 17 view .LVU116
  60:D:/OneDrive/Frankencloud/Installable/AudioInterfaces/DaisySeed/DaisyExamples/DaisySP/Source/Utility\delayline.h ****     {
 511              		.loc 2 60 17 is_stmt 0 view .LVU117
 512              	.LBE160:
 513              	.LBB161:
 514              	.LBB97:
  80:D:/OneDrive/Frankencloud/Installable/AudioInterfaces/DaisySeed/DaisyExamples/DaisySP/Source/Utility\delayline.h ****         T b = line_[(write_ptr_ + delay_ + 1) % max_size];
 515              		.loc 2 80 43 view .LVU118
 516 0092 4FEADB3B 		lsr	fp, fp, #15
 517              	.LBE97:
 518              	.LBE161:
 519              	.LBB162:
 520              	.LBB124:
  64:D:/OneDrive/Frankencloud/Installable/AudioInterfaces/DaisySeed/DaisyExamples/DaisySP/Source/Utility\delayline.h ****                                                            : max_size - 1;
 521              		.loc 2 64 16 view .LVU119
 522 0096 C5F89432 		str	r3, [r5, #660]
 523              	.LVL19:
  64:D:/OneDrive/Frankencloud/Installable/AudioInterfaces/DaisySeed/DaisyExamples/DaisySP/Source/Utility\delayline.h ****                                                            : max_size - 1;
 524              		.loc 2 64 16 view .LVU120
 525              	.LBE124:
ARM GAS  C:\Users\lockj\AppData\Local\Temp\cczLlGyy.s 			page 16


 526              	.LBE162:
  29:DelayEngine.cpp ****     float dlyR = delr_.Read();
 527              		.loc 1 29 5 is_stmt 1 view .LVU121
 528              	.LBB163:
 529              	.LBI90:
  78:D:/OneDrive/Frankencloud/Installable/AudioInterfaces/DaisySeed/DaisyExamples/DaisySP/Source/Utility\delayline.h ****     {
 530              		.loc 2 78 20 view .LVU122
 531              	.LBE163:
 532              	.LBB164:
 533              	.LBB129:
  80:D:/OneDrive/Frankencloud/Installable/AudioInterfaces/DaisySeed/DaisyExamples/DaisySP/Source/Utility\delayline.h ****         T b = line_[(write_ptr_ + delay_ + 1) % max_size];
 534              		.loc 2 80 33 is_stmt 0 view .LVU123
 535 009a 4344     		add	r3, r3, r8
 536              	.LBE129:
 537              	.LBE164:
 538              	.LBB165:
 539              	.LBB125:
  63:D:/OneDrive/Frankencloud/Installable/AudioInterfaces/DaisySeed/DaisyExamples/DaisySP/Source/Utility\delayline.h ****         delay_ = static_cast<size_t>(int_delay) < max_size ? int_delay
 540              		.loc 2 63 27 view .LVU124
 541 009c C5EDA37A 		vstr.32	s15, [r5, #652]
 542              	.LBE125:
 543              	.LBE165:
 544              	.LBB166:
 545              	.LBB98:
  80:D:/OneDrive/Frankencloud/Installable/AudioInterfaces/DaisySeed/DaisyExamples/DaisySP/Source/Utility\delayline.h ****         T b = line_[(write_ptr_ + delay_ + 1) % max_size];
 546              		.loc 2 80 43 view .LVU125
 547 00a0 06FB1BCC 		mls	ip, r6, fp, ip
  80:D:/OneDrive/Frankencloud/Installable/AudioInterfaces/DaisySeed/DaisyExamples/DaisySP/Source/Utility\delayline.h ****         T b = line_[(write_ptr_ + delay_ + 1) % max_size];
 548              		.loc 2 80 11 view .LVU126
 549 00a4 00EB8C0C 		add	ip, r0, ip, lsl #2
 550 00a8 DCED036A 		vldr.32	s13, [ip, #12]
 551              	.LVL20:
 552              		.loc 2 81 47 view .LVU127
 553 00ac A4FB0A2C 		umull	r2, ip, r4, r10
 554 00b0 4FEADC3C 		lsr	ip, ip, #15
 555 00b4 06FB1CAA 		mls	r10, r6, ip, r10
 556              	.LVL21:
 557              		.loc 2 81 47 view .LVU128
 558              	.LBE98:
 559              	.LBE166:
 560              	.LBB167:
 561              	.LBB130:
  80:D:/OneDrive/Frankencloud/Installable/AudioInterfaces/DaisySeed/DaisyExamples/DaisySP/Source/Utility\delayline.h ****         T b = line_[(write_ptr_ + delay_ + 1) % max_size];
 562              		.loc 2 80 43 view .LVU129
 563 00b8 A4FB032C 		umull	r2, ip, r4, r3
 564              	.LBE130:
 565              	.LBE167:
 566              	.LBB168:
 567              	.LBB99:
 568              		.loc 2 81 11 view .LVU130
 569 00bc 00EB8A0A 		add	r10, r0, r10, lsl #2
 570              	.LBE99:
 571              	.LBE168:
 572              	.LBB169:
 573              	.LBB131:
  80:D:/OneDrive/Frankencloud/Installable/AudioInterfaces/DaisySeed/DaisyExamples/DaisySP/Source/Utility\delayline.h ****         T b = line_[(write_ptr_ + delay_ + 1) % max_size];
 574              		.loc 2 80 43 view .LVU131
ARM GAS  C:\Users\lockj\AppData\Local\Temp\cczLlGyy.s 			page 17


 575 00c0 4FEADC3C 		lsr	ip, ip, #15
 576              	.LBE131:
 577              	.LBE169:
 578              	.LBB170:
 579              	.LBB100:
  82:D:/OneDrive/Frankencloud/Installable/AudioInterfaces/DaisySeed/DaisyExamples/DaisySP/Source/Utility\delayline.h ****         return a + (b - a) * frac_;
 580              		.loc 2 82 23 view .LVU132
 581 00c4 9AED036A 		vldr.32	s12, [r10, #12]
 582              	.LBE100:
 583              	.LBE170:
 584              	.LBB171:
 585              	.LBB132:
  81:D:/OneDrive/Frankencloud/Installable/AudioInterfaces/DaisySeed/DaisyExamples/DaisySP/Source/Utility\delayline.h ****         return a + (b - a) * frac_;
 586              		.loc 2 81 42 view .LVU133
 587 00c8 03F1010A 		add	r10, r3, #1
  80:D:/OneDrive/Frankencloud/Installable/AudioInterfaces/DaisySeed/DaisyExamples/DaisySP/Source/Utility\delayline.h ****         T b = line_[(write_ptr_ + delay_ + 1) % max_size];
 588              		.loc 2 80 43 view .LVU134
 589 00cc 06FB1C3C 		mls	ip, r6, ip, r3
 590              	.LBE132:
 591              	.LBE171:
 592              	.LBB172:
 593              	.LBB101:
 594              		.loc 2 82 23 view .LVU135
 595 00d0 36EE666A 		vsub.f32	s12, s12, s13
 596              	.LBE101:
 597              	.LBE172:
 598              	.LBB173:
 599              	.LBB133:
  81:D:/OneDrive/Frankencloud/Installable/AudioInterfaces/DaisySeed/DaisyExamples/DaisySP/Source/Utility\delayline.h ****         return a + (b - a) * frac_;
 600              		.loc 2 81 47 view .LVU136
 601 00d4 A4FB0A23 		umull	r2, r3, r4, r10
  80:D:/OneDrive/Frankencloud/Installable/AudioInterfaces/DaisySeed/DaisyExamples/DaisySP/Source/Utility\delayline.h ****         T b = line_[(write_ptr_ + delay_ + 1) % max_size];
 602              		.loc 2 80 11 view .LVU137
 603 00d8 05EB8C0C 		add	ip, r5, ip, lsl #2
  81:D:/OneDrive/Frankencloud/Installable/AudioInterfaces/DaisySeed/DaisyExamples/DaisySP/Source/Utility\delayline.h ****         return a + (b - a) * frac_;
 604              		.loc 2 81 47 view .LVU138
 605 00dc DB0B     		lsrs	r3, r3, #15
 606              	.LBE133:
 607              	.LBE173:
 608              	.LBB174:
 609              	.LBB102:
 610              		.loc 2 82 30 view .LVU139
 611 00de E7EE866A 		vfma.f32	s13, s15, s12
 612              	.LVL22:
 613              		.loc 2 82 30 view .LVU140
 614              	.LBE102:
 615              	.LBE174:
  30:DelayEngine.cpp **** 
 616              		.loc 1 30 5 is_stmt 1 view .LVU141
 617              	.LBB175:
 618              	.LBI127:
  78:D:/OneDrive/Frankencloud/Installable/AudioInterfaces/DaisySeed/DaisyExamples/DaisySP/Source/Utility\delayline.h ****     {
 619              		.loc 2 78 20 view .LVU142
 620              	.LBB134:
  81:D:/OneDrive/Frankencloud/Installable/AudioInterfaces/DaisySeed/DaisyExamples/DaisySP/Source/Utility\delayline.h ****         return a + (b - a) * frac_;
 621              		.loc 2 81 47 is_stmt 0 view .LVU143
 622 00e2 06FB13AA 		mls	r10, r6, r3, r10
ARM GAS  C:\Users\lockj\AppData\Local\Temp\cczLlGyy.s 			page 18


 623              	.LBE134:
 624              	.LBE175:
 625              		.loc 1 32 16 view .LVU144
 626 00e6 B0EE406A 		vmov.f32	s12, s0
 627              	.LBB176:
 628              	.LBB135:
  81:D:/OneDrive/Frankencloud/Installable/AudioInterfaces/DaisySeed/DaisyExamples/DaisySP/Source/Utility\delayline.h ****         return a + (b - a) * frac_;
 629              		.loc 2 81 11 view .LVU145
 630 00ea 05EB8A0A 		add	r10, r5, r10, lsl #2
 631              	.LBE135:
 632              	.LBE176:
  33:DelayEngine.cpp ****     delr_.Write(inr + (feedback_ * dlyR));
  34:DelayEngine.cpp **** 
  35:DelayEngine.cpp ****     outl = inl + currentDrywet_ * (dlyL - inl);
 633              		.loc 1 35 41 view .LVU146
 634 00ee 36EEC05A 		vsub.f32	s10, s13, s0
  32:DelayEngine.cpp ****     delr_.Write(inr + (feedback_ * dlyR));
 635              		.loc 1 32 16 view .LVU147
 636 00f2 A5EEA66A 		vfma.f32	s12, s11, s13
 637              	.LBB177:
 638              	.LBB136:
 639              		.loc 2 82 23 view .LVU148
 640 00f6 DAEDA66A 		vldr.32	s13, [r10, #664]
 641              	.LVL23:
 642              		.loc 2 82 23 view .LVU149
 643              	.LBE136:
 644              	.LBE177:
 645              		.loc 1 35 16 view .LVU150
 646 00fa A5EE070A 		vfma.f32	s0, s10, s14
 647              	.LVL24:
 648              	.LBB178:
 649              	.LBB137:
  80:D:/OneDrive/Frankencloud/Installable/AudioInterfaces/DaisySeed/DaisyExamples/DaisySP/Source/Utility\delayline.h ****         T b = line_[(write_ptr_ + delay_ + 1) % max_size];
 650              		.loc 2 80 11 view .LVU151
 651 00fe 9CEDA67A 		vldr.32	s14, [ip, #664]
 652              	.LVL25:
  80:D:/OneDrive/Frankencloud/Installable/AudioInterfaces/DaisySeed/DaisyExamples/DaisySP/Source/Utility\delayline.h ****         T b = line_[(write_ptr_ + delay_ + 1) % max_size];
 653              		.loc 2 80 11 view .LVU152
 654              	.LBE137:
 655              	.LBE178:
 656              	.LBB179:
 657              	.LBB180:
  73:D:/OneDrive/Frankencloud/Installable/AudioInterfaces/DaisySeed/DaisyExamples/DaisySP/Source/Utility\delayline.h ****     }
 658              		.loc 2 73 45 view .LVU153
 659 0102 09EB0E0C 		add	ip, r9, lr
 660              	.LBE180:
 661              	.LBE179:
 662              	.LBB187:
 663              	.LBB188:
 664 0106 C644     		add	lr, lr, r8
 665              	.LBE188:
 666              	.LBE187:
 667              	.LBB194:
 668              	.LBB138:
 669              		.loc 2 82 23 view .LVU154
 670 0108 76EEC76A 		vsub.f32	s13, s13, s14
 671              	.LBE138:
ARM GAS  C:\Users\lockj\AppData\Local\Temp\cczLlGyy.s 			page 19


 672              	.LBE194:
 673              	.LBB195:
 674              	.LBB181:
  72:D:/OneDrive/Frankencloud/Installable/AudioInterfaces/DaisySeed/DaisyExamples/DaisySP/Source/Utility\delayline.h ****         write_ptr_        = (write_ptr_ - 1 + max_size) % max_size;
 675              		.loc 2 72 27 view .LVU155
 676 010c 00EB8909 		add	r9, r0, r9, lsl #2
 677              	.LVL26:
  72:D:/OneDrive/Frankencloud/Installable/AudioInterfaces/DaisySeed/DaisyExamples/DaisySP/Source/Utility\delayline.h ****         write_ptr_        = (write_ptr_ - 1 + max_size) % max_size;
 678              		.loc 2 72 27 view .LVU156
 679              	.LBE181:
 680              	.LBE195:
 681              	.LBB196:
 682              	.LBB189:
 683 0110 05EB8808 		add	r8, r5, r8, lsl #2
 684              	.LBE189:
 685              	.LBE196:
 686              	.LBB197:
 687              	.LBB182:
 688 0114 89ED036A 		vstr.32	s12, [r9, #12]
 689              	.LVL27:
  72:D:/OneDrive/Frankencloud/Installable/AudioInterfaces/DaisySeed/DaisyExamples/DaisySP/Source/Utility\delayline.h ****         write_ptr_        = (write_ptr_ - 1 + max_size) % max_size;
 690              		.loc 2 72 27 view .LVU157
 691              	.LBE182:
 692              	.LBE197:
 693              	.LBB198:
 694              	.LBB139:
 695              		.loc 2 82 30 view .LVU158
 696 0118 A7EEA67A 		vfma.f32	s14, s15, s13
 697              	.LVL28:
 698              		.loc 2 82 30 view .LVU159
 699              	.LBE139:
 700              	.LBE198:
  32:DelayEngine.cpp ****     delr_.Write(inr + (feedback_ * dlyR));
 701              		.loc 1 32 5 is_stmt 1 view .LVU160
 702              	.LBB199:
 703              	.LBI179:
  70:D:/OneDrive/Frankencloud/Installable/AudioInterfaces/DaisySeed/DaisyExamples/DaisySP/Source/Utility\delayline.h ****     {
 704              		.loc 2 70 17 view .LVU161
 705              	.LBB183:
  73:D:/OneDrive/Frankencloud/Installable/AudioInterfaces/DaisySeed/DaisyExamples/DaisySP/Source/Utility\delayline.h ****     }
 706              		.loc 2 73 57 is_stmt 0 view .LVU162
 707 011c A4FB0C39 		umull	r3, r9, r4, ip
 708              	.LBE183:
 709              	.LBE199:
  33:DelayEngine.cpp **** 
 710              		.loc 1 33 16 view .LVU163
 711 0120 F0EE607A 		vmov.f32	s15, s1
 712              	.LBB200:
 713              	.LBB190:
  73:D:/OneDrive/Frankencloud/Installable/AudioInterfaces/DaisySeed/DaisyExamples/DaisySP/Source/Utility\delayline.h ****     }
 714              		.loc 2 73 57 view .LVU164
 715 0124 A4FB0E23 		umull	r2, r3, r4, lr
 716              	.LBE190:
 717              	.LBE200:
 718              	.LBB201:
 719              	.LBB184:
 720 0128 4FEAD934 		lsr	r4, r9, #15
ARM GAS  C:\Users\lockj\AppData\Local\Temp\cczLlGyy.s 			page 20


 721              	.LBE184:
 722              	.LBE201:
 723              	.LBB202:
 724              	.LBB191:
 725 012c DB0B     		lsrs	r3, r3, #15
 726              	.LBE191:
 727              	.LBE202:
 728              	.LBB203:
 729              	.LBB185:
 730 012e 06FB14C4 		mls	r4, r6, r4, ip
 731              	.LBE185:
 732              	.LBE203:
 733              	.LBB204:
 734              	.LBB192:
 735 0132 06FB13E3 		mls	r3, r6, r3, lr
 736              	.LBE192:
 737              	.LBE204:
  33:DelayEngine.cpp **** 
 738              		.loc 1 33 16 view .LVU165
 739 0136 E5EE877A 		vfma.f32	s15, s11, s14
 740              	.LBB205:
 741              	.LBB186:
  73:D:/OneDrive/Frankencloud/Installable/AudioInterfaces/DaisySeed/DaisyExamples/DaisySP/Source/Utility\delayline.h ****     }
 742              		.loc 2 73 27 view .LVU166
 743 013a 4460     		str	r4, [r0, #4]
 744              	.LVL29:
  73:D:/OneDrive/Frankencloud/Installable/AudioInterfaces/DaisySeed/DaisyExamples/DaisySP/Source/Utility\delayline.h ****     }
 745              		.loc 2 73 27 view .LVU167
 746              	.LBE186:
 747              	.LBE205:
  33:DelayEngine.cpp **** 
 748              		.loc 1 33 5 is_stmt 1 view .LVU168
 749              	.LBB206:
 750              	.LBI187:
  70:D:/OneDrive/Frankencloud/Installable/AudioInterfaces/DaisySeed/DaisyExamples/DaisySP/Source/Utility\delayline.h ****     {
 751              		.loc 2 70 17 view .LVU169
 752              	.LBE206:
  36:DelayEngine.cpp ****     outr = inr + currentDrywet_ * (dlyR - inr);
 753              		.loc 1 36 41 is_stmt 0 view .LVU170
 754 013c 37EE607A 		vsub.f32	s14, s14, s1
 755              	.LVL30:
 756              	.LBB207:
 757              	.LBB193:
  72:D:/OneDrive/Frankencloud/Installable/AudioInterfaces/DaisySeed/DaisyExamples/DaisySP/Source/Utility\delayline.h ****         write_ptr_        = (write_ptr_ - 1 + max_size) % max_size;
 758              		.loc 2 72 27 view .LVU171
 759 0140 C8EDA67A 		vstr.32	s15, [r8, #664]
  73:D:/OneDrive/Frankencloud/Installable/AudioInterfaces/DaisySeed/DaisyExamples/DaisySP/Source/Utility\delayline.h ****     }
 760              		.loc 2 73 27 view .LVU172
 761 0144 C5F89032 		str	r3, [r5, #656]
 762              	.LVL31:
  73:D:/OneDrive/Frankencloud/Installable/AudioInterfaces/DaisySeed/DaisyExamples/DaisySP/Source/Utility\delayline.h ****     }
 763              		.loc 2 73 27 view .LVU173
 764              	.LBE193:
 765              	.LBE207:
  35:DelayEngine.cpp ****     outr = inr + currentDrywet_ * (dlyR - inr);
 766              		.loc 1 35 5 is_stmt 1 view .LVU174
 767              		.loc 1 36 10 is_stmt 0 view .LVU175
ARM GAS  C:\Users\lockj\AppData\Local\Temp\cczLlGyy.s 			page 21


 768 0148 14EE903A 		vmov	r3, s9	@ int
  35:DelayEngine.cpp ****     outr = inr + currentDrywet_ * (dlyR - inr);
 769              		.loc 1 35 10 view .LVU176
 770 014c 81ED000A 		vstr.32	s0, [r1]
 771              		.loc 1 36 5 is_stmt 1 view .LVU177
 772              		.loc 1 36 16 is_stmt 0 view .LVU178
 773 0150 D7ED007A 		vldr.32	s15, [r7]
 774 0154 E7EE870A 		vfma.f32	s1, s15, s14
 775              	.LVL32:
 776              		.loc 1 36 10 view .LVU179
 777 0158 C3ED000A 		vstr.32	s1, [r3]
  37:DelayEngine.cpp **** }...
 778              		.loc 1 37 1 view .LVU180
 779 015c BDE8F08F 		pop	{r4, r5, r6, r7, r8, r9, r10, fp, pc}
 780              	.L14:
 781              		.align	2
 782              	.L13:
 783 0160 F7CC9238 		.word	949144823
 784 0164 6F12033A 		.word	973279855
 785 0168 D55204E9 		.word	-385592619
 786              		.cfi_endproc
 787              	.LFE3513:
 789              		.text
 790              	.Letext0:
 791              		.file 4 "c:\\program files\\daisytoolchain\\arm-none-eabi\\include\\machine\\_default_types.h"
 792              		.file 5 "c:\\program files\\daisytoolchain\\arm-none-eabi\\include\\sys\\_stdint.h"
 793              		.file 6 "c:\\program files\\daisytoolchain\\arm-none-eabi\\include\\stdint.h"
 794              		.file 7 "c:\\program files\\daisytoolchain\\lib\\gcc\\arm-none-eabi\\10.2.1\\include\\stddef.h"
 795              		.file 8 "c:\\program files\\daisytoolchain\\arm-none-eabi\\include\\c++\\10.2.1\\cmath"
 796              		.file 9 "c:\\program files\\daisytoolchain\\arm-none-eabi\\include\\c++\\10.2.1\\bits\\std_abs.h"
 797              		.file 10 "c:\\program files\\daisytoolchain\\arm-none-eabi\\include\\c++\\10.2.1\\cstdint"
 798              		.file 11 "c:\\program files\\daisytoolchain\\arm-none-eabi\\include\\c++\\10.2.1\\cstdlib"
 799              		.file 12 "c:\\program files\\daisytoolchain\\arm-none-eabi\\include\\c++\\10.2.1\\type_traits"
 800              		.file 13 "c:\\program files\\daisytoolchain\\arm-none-eabi\\include\\c++\\10.2.1\\debug\\debug.h"
 801              		.file 14 "c:\\program files\\daisytoolchain\\arm-none-eabi\\include\\c++\\10.2.1\\cwchar"
 802              		.file 15 "c:\\program files\\daisytoolchain\\arm-none-eabi\\include\\c++\\10.2.1\\bits\\stl_pair.h
 803              		.file 16 "c:\\program files\\daisytoolchain\\arm-none-eabi\\include\\c++\\10.2.1\\bits\\exception_
 804              		.file 17 "c:\\program files\\daisytoolchain\\arm-none-eabi\\include\\c++\\10.2.1\\arm-none-eabi\\t
 805              		.file 18 "c:\\program files\\daisytoolchain\\arm-none-eabi\\include\\c++\\10.2.1\\clocale"
 806              		.file 19 "c:\\program files\\daisytoolchain\\arm-none-eabi\\include\\c++\\10.2.1\\cstdio"
 807              		.file 20 "c:\\program files\\daisytoolchain\\arm-none-eabi\\include\\c++\\10.2.1\\bits\\basic_stri
 808              		.file 21 "c:\\program files\\daisytoolchain\\arm-none-eabi\\include\\c++\\10.2.1\\bits\\charconv.h
 809              		.file 22 "c:\\program files\\daisytoolchain\\arm-none-eabi\\include\\c++\\10.2.1\\bits\\algorithmf
 810              		.file 23 "c:\\program files\\daisytoolchain\\arm-none-eabi\\include\\c++\\10.2.1\\cstring"
 811              		.file 24 "c:\\program files\\daisytoolchain\\arm-none-eabi\\include\\c++\\10.2.1\\bits\\predefined
 812              		.file 25 "c:\\program files\\daisytoolchain\\arm-none-eabi\\include\\sys\\_types.h"
 813              		.file 26 "c:\\program files\\daisytoolchain\\arm-none-eabi\\include\\sys\\reent.h"
 814              		.file 27 "c:\\program files\\daisytoolchain\\arm-none-eabi\\include\\sys\\lock.h"
 815              		.file 28 "c:\\program files\\daisytoolchain\\arm-none-eabi\\include\\math.h"
 816              		.file 29 "c:\\program files\\daisytoolchain\\arm-none-eabi\\include\\stdlib.h"
 817              		.file 30 "c:\\program files\\daisytoolchain\\arm-none-eabi\\include\\c++\\10.2.1\\math.h"
 818              		.file 31 "D:/OneDrive/Frankencloud/Installable/AudioInterfaces/DaisySeed/DaisyExamples/DaisySP/Sou
 819              		.file 32 "c:\\program files\\daisytoolchain\\lib\\gcc\\arm-none-eabi\\10.2.1\\include\\stdarg.h"
 820              		.file 33 "c:\\program files\\daisytoolchain\\arm-none-eabi\\include\\wchar.h"
 821              		.file 34 "c:\\program files\\daisytoolchain\\arm-none-eabi\\include\\locale.h"
 822              		.file 35 "c:\\program files\\daisytoolchain\\arm-none-eabi\\include\\stdio.h"
 823              		.file 36 "c:\\program files\\daisytoolchain\\arm-none-eabi\\include\\c++\\10.2.1\\stdlib.h"
ARM GAS  C:\Users\lockj\AppData\Local\Temp\cczLlGyy.s 			page 22


 824              		.file 37 "c:\\program files\\daisytoolchain\\arm-none-eabi\\include\\string.h"
 825              		.file 38 "DelayEngine.h"
 826              		.file 39 "<built-in>"
ARM GAS  C:\Users\lockj\AppData\Local\Temp\cczLlGyy.s 			page 23

